ARM GAS  D:\Windows\AppData\Local\Temp\ccisZbac.s 			page 1


   1              		.syntax unified
   2              		.cpu cortex-m3
   3              		.fpu softvfp
   4              		.eabi_attribute 20, 1
   5              		.eabi_attribute 21, 1
   6              		.eabi_attribute 23, 3
   7              		.eabi_attribute 24, 1
   8              		.eabi_attribute 25, 1
   9              		.eabi_attribute 26, 1
  10              		.eabi_attribute 30, 6
  11              		.eabi_attribute 34, 1
  12              		.eabi_attribute 18, 4
  13              		.thumb
  14              		.file	"main.c"
  15              		.text
  16              	.Ltext0:
  17              		.cfi_sections	.debug_frame
  18              		.section	.text.main,"ax",%progbits
  19              		.align	2
  20              		.global	main
  21              		.thumb
  22              		.thumb_func
  23              		.type	main, %function
  24              	main:
  25              	.LFB63:
  26              		.file 1 "main.c"
   1:main.c        **** /*  Node-Beaver
   2:main.c        **** 	This node logs data from the CAN network and presents the data to the outside world.
   3:main.c        ****     
   4:main.c        ****     Dustin Mai FRUCD 2016-2017
   5:main.c        ****  */
   6:main.c        **** 
   7:main.c        **** #include <project.h>
   8:main.c        **** #include "data.h"
   9:main.c        **** #include "time_manager.h"
  10:main.c        **** #include "can_manager.h"
  11:main.c        **** #include "usb_manager.h"
  12:main.c        **** #include "sd_manager.h"
  13:main.c        **** #include "radio_manager.h"
  14:main.c        **** 
  15:main.c        **** 
  16:main.c        **** int main(void) {
  27              		.loc 1 16 0
  28              		.cfi_startproc
  29              		@ args = 0, pretend = 0, frame = 24
  30              		@ frame_needed = 1, uses_anonymous_args = 0
  31 0000 80B5     		push	{r7, lr}
  32              		.cfi_def_cfa_offset 8
  33              		.cfi_offset 7, -8
  34              		.cfi_offset 14, -4
  35 0002 86B0     		sub	sp, sp, #24
  36              		.cfi_def_cfa_offset 32
  37 0004 00AF     		add	r7, sp, #0
  38              		.cfi_def_cfa_register 7
  17:main.c        **** 	CYGlobalIntEnable;      //Uncomment this line to enable global interrupts 
  39              		.loc 1 17 0
  40              	@ 17 "main.c" 1
ARM GAS  D:\Windows\AppData\Local\Temp\ccisZbac.s 			page 2


  41 0006 62B6     		CPSIE   i
  42              	@ 0 "" 2
  18:main.c        **** 
  19:main.c        **** 	uint8_t atomic_state = CyEnterCriticalSection(); // BEGIN ATOMIC
  43              		.loc 1 19 0
  44              		.thumb
  45 0008 FFF7FEFF 		bl	CyEnterCriticalSection
  46 000c 0346     		mov	r3, r0
  47 000e FB75     		strb	r3, [r7, #23]
  20:main.c        **** 	time_init();                //init everything
  48              		.loc 1 20 0
  49 0010 FFF7FEFF 		bl	time_init
  21:main.c        **** 	can_init();
  50              		.loc 1 21 0
  51 0014 FFF7FEFF 		bl	can_init
  22:main.c        **** 	usb_init();
  52              		.loc 1 22 0
  53 0018 FFF7FEFF 		bl	usb_init
  23:main.c        **** 	sd_init(time_get());
  54              		.loc 1 23 0
  55 001c 3B1D     		adds	r3, r7, #4
  56 001e 1846     		mov	r0, r3
  57 0020 FFF7FEFF 		bl	time_get
  58 0024 3B1D     		adds	r3, r7, #4
  59 0026 0FCB     		ldmia	r3, {r0, r1, r2, r3}
  60 0028 FFF7FEFF 		bl	sd_init
  24:main.c        ****     radio_init_UART();          //xbee UART
  61              		.loc 1 24 0
  62 002c FFF7FEFF 		bl	radio_init_UART
  25:main.c        **** 	//wdt_init();
  26:main.c        **** 	CyDelay(100);				//give some time to finish setup
  63              		.loc 1 26 0
  64 0030 6420     		movs	r0, #100
  65 0032 FFF7FEFF 		bl	CyDelay
  27:main.c        **** 	CyExitCriticalSection(atomic_state);               // END ATOMIC
  66              		.loc 1 27 0
  67 0036 FB7D     		ldrb	r3, [r7, #23]	@ zero_extendqisi2
  68 0038 1846     		mov	r0, r3
  69 003a FFF7FEFF 		bl	CyExitCriticalSection
  70              	.L2:
  28:main.c        **** 	
  29:main.c        **** 	for(;;)	{
  30:main.c        **** 	    //can_test_send();
  31:main.c        **** 		//can_test_receive();
  32:main.c        **** 		//CyDelay(1000);
  33:main.c        **** 	} // main loop
  71              		.loc 1 33 0 discriminator 1
  72 003e FEE7     		b	.L2
  73              		.cfi_endproc
  74              	.LFE63:
  75              		.size	main, .-main
  76              		.section	.text.msg_recieve,"ax",%progbits
  77              		.align	2
  78              		.global	msg_recieve
  79              		.thumb
  80              		.thumb_func
  81              		.type	msg_recieve, %function
ARM GAS  D:\Windows\AppData\Local\Temp\ccisZbac.s 			page 3


  82              	msg_recieve:
  83              	.LFB64:
  34:main.c        **** 
  35:main.c        **** 	return 0;
  36:main.c        **** } // main()
  37:main.c        **** 
  38:main.c        **** /* when a can message is recieved will immediately save messages to external devices
  39:main.c        **** 	- transmit over xbee
  40:main.c        **** 	- write to sd
  41:main.c        **** 	- write to usb	*/
  42:main.c        **** void msg_recieve(DataPacket * msg) {
  84              		.loc 1 42 0
  85              		.cfi_startproc
  86              		@ args = 0, pretend = 0, frame = 8
  87              		@ frame_needed = 1, uses_anonymous_args = 0
  88 0000 80B5     		push	{r7, lr}
  89              		.cfi_def_cfa_offset 8
  90              		.cfi_offset 7, -8
  91              		.cfi_offset 14, -4
  92 0002 82B0     		sub	sp, sp, #8
  93              		.cfi_def_cfa_offset 16
  94 0004 00AF     		add	r7, sp, #0
  95              		.cfi_def_cfa_register 7
  96 0006 7860     		str	r0, [r7, #4]
  43:main.c        **** 	if(can_process(msg)) {	//if message is new data value
  97              		.loc 1 43 0
  98 0008 7868     		ldr	r0, [r7, #4]
  99 000a FFF7FEFF 		bl	can_process
 100 000e 0346     		mov	r3, r0
 101 0010 002B     		cmp	r3, #0
 102 0012 08D0     		beq	.L3
  44:main.c        **** 		xbee_send(msg);
 103              		.loc 1 44 0
 104 0014 7868     		ldr	r0, [r7, #4]
 105 0016 FFF7FEFF 		bl	xbee_send
  45:main.c        **** 		sd_buffer(msg);
 106              		.loc 1 45 0
 107 001a 7868     		ldr	r0, [r7, #4]
 108 001c FFF7FEFF 		bl	sd_buffer
  46:main.c        **** 		usb_write(msg);
 109              		.loc 1 46 0
 110 0020 7868     		ldr	r0, [r7, #4]
 111 0022 FFF7FEFF 		bl	usb_write
 112              	.L3:
  47:main.c        **** 	}
  48:main.c        **** }
 113              		.loc 1 48 0
 114 0026 0837     		adds	r7, r7, #8
 115              		.cfi_def_cfa_offset 8
 116 0028 BD46     		mov	sp, r7
 117              		.cfi_def_cfa_register 13
 118              		@ sp needed
 119 002a 80BD     		pop	{r7, pc}
 120              		.cfi_endproc
 121              	.LFE64:
 122              		.size	msg_recieve, .-msg_recieve
 123              		.text
ARM GAS  D:\Windows\AppData\Local\Temp\ccisZbac.s 			page 4


 124              	.Letext0:
 125              		.file 2 "d:\\programming\\cypress\\psoc creator\\4.0\\psoc creator\\import\\gnu\\arm\\4.9.3\\arm-n
 126              		.file 3 "d:\\programming\\cypress\\psoc creator\\4.0\\psoc creator\\import\\gnu\\arm\\4.9.3\\arm-n
 127              		.file 4 "data.h"
 128              		.file 5 "Generated_Source\\PSoC5/core_cm3.h"