Archive member included because of file (symbol)

.\CortexM3\ARM_GCC_493\Debug\Node-Beaver.a(cyfitter_cfg.o)
                              .\CortexM3\ARM_GCC_493\Debug\Cm3Start.o (cyfitter_cfg)
.\CortexM3\ARM_GCC_493\Debug\Node-Beaver.a(CyLib.o)
                              .\CortexM3\ARM_GCC_493\Debug\Cm3Start.o (CyResetStatus)
.\CortexM3\ARM_GCC_493\Debug\Node-Beaver.a(cyPm.o)
                              .\CortexM3\ARM_GCC_493\Debug\Node-Beaver.a(CyLib.o) (CyPmReadStatus)
.\CortexM3\ARM_GCC_493\Debug\Node-Beaver.a(CAN_1.o)
                              .\CortexM3\ARM_GCC_493\Debug\can_manager.o (CAN_1_Init)
.\CortexM3\ARM_GCC_493\Debug\Node-Beaver.a(CAN_1_INT.o)
                              .\CortexM3\ARM_GCC_493\Debug\Node-Beaver.a(CAN_1.o) (CAN_1_ISR)
.\CortexM3\ARM_GCC_493\Debug\Node-Beaver.a(CAN_1_TX_RX_func.o)
                              .\CortexM3\ARM_GCC_493\Debug\can_manager.o (CAN_1_SendMsg)
.\CortexM3\ARM_GCC_493\Debug\Node-Beaver.a(LED.o)
                              .\CortexM3\ARM_GCC_493\Debug\sd_manager.o (LED_Write)
.\CortexM3\ARM_GCC_493\Debug\Node-Beaver.a(USBUART_1.o)
                              .\CortexM3\ARM_GCC_493\Debug\usb_manager.o (USBUART_1_Start)
.\CortexM3\ARM_GCC_493\Debug\Node-Beaver.a(USBUART_1_cdc.o)
                              .\CortexM3\ARM_GCC_493\Debug\usb_manager.o (USBUART_1_DataIsReady)
.\CortexM3\ARM_GCC_493\Debug\Node-Beaver.a(USBUART_1_drv.o)
                              .\CortexM3\ARM_GCC_493\Debug\Node-Beaver.a(USBUART_1.o) (USBUART_1_EP)
.\CortexM3\ARM_GCC_493\Debug\Node-Beaver.a(USBUART_1_episr.o)
                              .\CortexM3\ARM_GCC_493\Debug\Node-Beaver.a(USBUART_1.o) (USBUART_1_EP_1_ISR)
.\CortexM3\ARM_GCC_493\Debug\Node-Beaver.a(USBUART_1_pm.o)
                              .\CortexM3\ARM_GCC_493\Debug\Node-Beaver.a(USBUART_1.o) (USBUART_1_DP_ISR)
.\CortexM3\ARM_GCC_493\Debug\Node-Beaver.a(USBUART_1_std.o)
                              .\CortexM3\ARM_GCC_493\Debug\Node-Beaver.a(USBUART_1_drv.o) (USBUART_1_HandleStandardRqst)
.\CortexM3\ARM_GCC_493\Debug\Node-Beaver.a(USBUART_1_vnd.o)
                              .\CortexM3\ARM_GCC_493\Debug\Node-Beaver.a(USBUART_1_drv.o) (USBUART_1_HandleVendorRqst)
.\CortexM3\ARM_GCC_493\Debug\Node-Beaver.a(USBUART_1_Dp.o)
                              .\CortexM3\ARM_GCC_493\Debug\Node-Beaver.a(USBUART_1.o) (USBUART_1_Dp_ClearInterrupt)
.\CortexM3\ARM_GCC_493\Debug\Node-Beaver.a(power_isr.o)
                              .\CortexM3\ARM_GCC_493\Debug\sd_manager.o (power_isr_StartEx)
.\CortexM3\ARM_GCC_493\Debug\Node-Beaver.a(rtc_i2c.o)
                              .\CortexM3\ARM_GCC_493\Debug\time_manager.o (rtc_i2c_Start)
.\CortexM3\ARM_GCC_493\Debug\Node-Beaver.a(rtc_i2c_INT.o)
                              .\CortexM3\ARM_GCC_493\Debug\Node-Beaver.a(rtc_i2c.o) (rtc_i2c_ISR)
.\CortexM3\ARM_GCC_493\Debug\Node-Beaver.a(rtc_i2c_PM.o)
                              .\CortexM3\ARM_GCC_493\Debug\Node-Beaver.a(rtc_i2c.o) (rtc_i2c_backup)
.\CortexM3\ARM_GCC_493\Debug\Node-Beaver.a(rtc_i2c_MASTER.o)
                              .\CortexM3\ARM_GCC_493\Debug\Node-Beaver.a(rtc_i2c.o) (rtc_i2c_mstrStatus)
.\CortexM3\ARM_GCC_493\Debug\Node-Beaver.a(time_refresh_isr.o)
                              .\CortexM3\ARM_GCC_493\Debug\time_manager.o (time_refresh_isr_StartEx)
.\CortexM3\ARM_GCC_493\Debug\Node-Beaver.a(millis_timer.o)
                              .\CortexM3\ARM_GCC_493\Debug\time_manager.o (millis_timer_Start)
.\CortexM3\ARM_GCC_493\Debug\Node-Beaver.a(time_refresh_timer.o)
                              .\CortexM3\ARM_GCC_493\Debug\time_manager.o (time_refresh_timer_Start)
.\CortexM3\ARM_GCC_493\Debug\Node-Beaver.a(power_comp.o)
                              .\CortexM3\ARM_GCC_493\Debug\sd_manager.o (power_comp_Start)
.\CortexM3\ARM_GCC_493\Debug\Node-Beaver.a(xbee_UART.o)
                              .\CortexM3\ARM_GCC_493\Debug\radio_manager.o (xbee_UART_Start)
.\CortexM3\ARM_GCC_493\Debug\Node-Beaver.a(xbee_UART_INT.o)
                              .\CortexM3\ARM_GCC_493\Debug\Node-Beaver.a(xbee_UART.o) (xbee_UART_RXISR)
.\CortexM3\ARM_GCC_493\Debug\Node-Beaver.a(xbee_UART_IntClock.o)
                              .\CortexM3\ARM_GCC_493\Debug\Node-Beaver.a(xbee_UART.o) (xbee_UART_IntClock_Start)
.\CortexM3\ARM_GCC_493\Debug\Node-Beaver.a(sd_timer.o)
                              .\CortexM3\ARM_GCC_493\Debug\sd_manager.o (sd_timer_Start)
.\CortexM3\ARM_GCC_493\Debug\Node-Beaver.a(sd_isr.o)
                              .\CortexM3\ARM_GCC_493\Debug\sd_manager.o (sd_isr_StartEx)
.\CortexM3\ARM_GCC_493\Debug\Node-Beaver.a(watchdog_timer.o)
                              .\CortexM3\ARM_GCC_493\Debug\time_manager.o (watchdog_timer_Start)
.\CortexM3\ARM_GCC_493\Debug\Node-Beaver.a(wdt_reset_isr.o)
                              .\CortexM3\ARM_GCC_493\Debug\time_manager.o (wdt_reset_isr_StartEx)
.\CortexM3\ARM_GCC_493\Debug\Node-Beaver.a(car_state_isr.o)
                              .\CortexM3\ARM_GCC_493\Debug\can_manager.o (car_state_isr_StartEx)
.\CortexM3\ARM_GCC_493\Debug\Node-Beaver.a(car_state_timer.o)
                              .\CortexM3\ARM_GCC_493\Debug\can_manager.o (car_state_timer_Start)
.\CortexM3\ARM_GCC_493\Debug\Node-Beaver.a(heartbeat_timer.o)
                              .\CortexM3\ARM_GCC_493\Debug\can_manager.o (heartbeat_timer_Start)
.\CortexM3\ARM_GCC_493\Debug\Node-Beaver.a(heartbeat_isr.o)
                              .\CortexM3\ARM_GCC_493\Debug\can_manager.o (heartbeat_isr_StartEx)
.\CortexM3\ARM_GCC_493\Debug\Node-Beaver.a(CyBootAsmGnu.o)
                              .\CortexM3\ARM_GCC_493\Debug\Node-Beaver.a(cyfitter_cfg.o) (CyDelayCycles)
.\CortexM3\ARM_GCC_493\Debug\Node-Beaver.a(CyFlash.o)
                              .\CortexM3\ARM_GCC_493\Debug\Node-Beaver.a(cyPm.o) (CyFlash_SetWaitCycles)
.\CortexM3\ARM_GCC_493\Debug\Node-Beaver.a(CySpc.o)
                              .\CortexM3\ARM_GCC_493\Debug\Node-Beaver.a(CyFlash.o) (CySpcStart)
.\CortexM3\ARM_GCC_493\Debug\Node-Beaver.a(cyutils.o)
                              .\CortexM3\ARM_GCC_493\Debug\Node-Beaver.a(time_refresh_timer.o) (CySetReg24)
.\CortexM3\ARM_GCC_493\Debug\Node-Beaver.a(USBUART_1_cls.o)
                              .\CortexM3\ARM_GCC_493\Debug\Node-Beaver.a(USBUART_1_drv.o) (USBUART_1_DispatchClassRqst)
.\CortexM3\ARM_GCC_493\Debug\Node-Beaver.a(USBUART_1_descr.o)
                              .\CortexM3\ARM_GCC_493\Debug\Node-Beaver.a(USBUART_1_std.o) (USBUART_1_DEVICE0_DESCR)
.\emFile_V322c\LinkLibrary\PSoC5\GCC\libemf16noslfn.a(FAT_FormatSD.o)
                              .\CortexM3\ARM_GCC_493\Debug\sd_manager.o (FS_FormatSD)
.\emFile_V322c\LinkLibrary\PSoC5\GCC\libemf16noslfn.a(FAT_LFN.o)
                              .\CortexM3\ARM_GCC_493\Debug\sd_manager.o (FS_FAT_SupportLFN)
.\emFile_V322c\LinkLibrary\PSoC5\GCC\libemf16noslfn.a(FAT_Misc.o)
                              .\emFile_V322c\LinkLibrary\PSoC5\GCC\libemf16noslfn.a(FAT_FormatSD.o) (FS_FAT_GetFATType)
.\emFile_V322c\LinkLibrary\PSoC5\GCC\libemf16noslfn.a(FAT_Open.o)
                              .\emFile_V322c\LinkLibrary\PSoC5\GCC\libemf16noslfn.a(FAT_LFN.o) (FS_FAT_InitDirEntryScan)
.\emFile_V322c\LinkLibrary\PSoC5\GCC\libemf16noslfn.a(FAT_Write.o)
                              .\emFile_V322c\LinkLibrary\PSoC5\GCC\libemf16noslfn.a(FAT_Misc.o) (FS_FAT_Close)
.\emFile_V322c\LinkLibrary\PSoC5\GCC\libemf16noslfn.a(FS_Attrib.o)
                              .\CortexM3\ARM_GCC_493\Debug\sd_manager.o (FS_GetFileAttributes)
.\emFile_V322c\LinkLibrary\PSoC5\GCC\libemf16noslfn.a(FS_CLib.o)
                              .\emFile_V322c\LinkLibrary\PSoC5\GCC\libemf16noslfn.a(FAT_LFN.o) (FS__CLIB_memcmp)
.\emFile_V322c\LinkLibrary\PSoC5\GCC\libemf16noslfn.a(FS_Core.o)
                              .\emFile_V322c\LinkLibrary\PSoC5\GCC\libemf16noslfn.a(FAT_FormatSD.o) (FS__DivideU32Up)
.\emFile_V322c\LinkLibrary\PSoC5\GCC\libemf16noslfn.a(FS_Dir.o)
                              .\CortexM3\ARM_GCC_493\Debug\sd_manager.o (FS_MkDir)
.\emFile_V322c\LinkLibrary\PSoC5\GCC\libemf16noslfn.a(FS_LogBlock.o)
                              .\emFile_V322c\LinkLibrary\PSoC5\GCC\libemf16noslfn.a(FAT_FormatSD.o) (FS_LB_GetStatus)
.\emFile_V322c\LinkLibrary\PSoC5\GCC\libemf16noslfn.a(FS_memcpy.o)
                              .\emFile_V322c\LinkLibrary\PSoC5\GCC\libemf16noslfn.a(FAT_Open.o) (FS_memcpy)
.\emFile_V322c\LinkLibrary\PSoC5\GCC\libemf16noslfn.a(FS_Misc.o)
                              .\emFile_V322c\LinkLibrary\PSoC5\GCC\libemf16noslfn.a(FAT_FormatSD.o) (FS__AllocSectorBuffer)
.\emFile_V322c\LinkLibrary\PSoC5\GCC\libemf16noslfn.a(FS_Read.o)
                              .\CortexM3\ARM_GCC_493\Debug\sd_manager.o (FS_Read)
.\emFile_V322c\LinkLibrary\PSoC5\GCC\libemf16noslfn.a(FS_Storage.o)
                              .\CortexM3\ARM_GCC_493\Debug\sd_manager.o (FS_GetNumVolumes)
.\emFile_V322c\LinkLibrary\PSoC5\GCC\libemf16noslfn.a(FS_Time.o)
                              .\CortexM3\ARM_GCC_493\Debug\sd_manager.o (FS_FileTimeToTimeStamp)
.\emFile_V322c\LinkLibrary\PSoC5\GCC\libemf16noslfn.a(FS_Unmount.o)
                              .\emFile_V322c\LinkLibrary\PSoC5\GCC\libemf16noslfn.a(FS_Misc.o) (FS__UnmountForcedNL)
.\emFile_V322c\LinkLibrary\PSoC5\GCC\libemf16noslfn.a(FS_Volume.o)
                              .\CortexM3\ARM_GCC_493\Debug\sd_manager.o (FS_Sync)
.\emFile_V322c\LinkLibrary\PSoC5\GCC\libemf16noslfn.a(FS_Write.o)
                              .\CortexM3\ARM_GCC_493\Debug\sd_manager.o (FS_Write)
.\emFile_V322c\LinkLibrary\PSoC5\GCC\libemf16noslfn.a(FAT_CheckDisk.o)
                              .\emFile_V322c\LinkLibrary\PSoC5\GCC\libemf16noslfn.a(FS_Volume.o) (FS_FAT__CheckDisk)
.\emFile_V322c\LinkLibrary\PSoC5\GCC\libemf16noslfn.a(FAT_Dir.o)
                              .\emFile_V322c\LinkLibrary\PSoC5\GCC\libemf16noslfn.a(FS_Dir.o) (FS_FAT_ReadDir)
.\emFile_V322c\LinkLibrary\PSoC5\GCC\libemf16noslfn.a(FAT_DirEntry.o)
                              .\emFile_V322c\LinkLibrary\PSoC5\GCC\libemf16noslfn.a(FAT_Misc.o) (FS_FAT_SetDirEntryInfo)
.\emFile_V322c\LinkLibrary\PSoC5\GCC\libemf16noslfn.a(FAT_DiskInfo.o)
                              .\emFile_V322c\LinkLibrary\PSoC5\GCC\libemf16noslfn.a(FS_Volume.o) (FS_FAT_GetDiskInfo)
.\emFile_V322c\LinkLibrary\PSoC5\GCC\libemf16noslfn.a(FAT_Format.o)
                              .\emFile_V322c\LinkLibrary\PSoC5\GCC\libemf16noslfn.a(FAT_FormatSD.o) (FS_FAT_FormatEx)
.\emFile_V322c\LinkLibrary\PSoC5\GCC\libemf16noslfn.a(FAT_Read.o)
                              .\emFile_V322c\LinkLibrary\PSoC5\GCC\libemf16noslfn.a(FS_Read.o) (FS_FAT_Read)
.\emFile_V322c\LinkLibrary\PSoC5\GCC\libemf16noslfn.a(FAT_VolumeLabel.o)
                              .\emFile_V322c\LinkLibrary\PSoC5\GCC\libemf16noslfn.a(FS_Volume.o) (FS_FAT_SetVolumeLabel)
.\emFile_V322c\LinkLibrary\PSoC5\GCC\libemf16noslfn.a(FS_Partition.o)
                              .\emFile_V322c\LinkLibrary\PSoC5\GCC\libemf16noslfn.a(FS_Volume.o) (FS__LocatePartition)
.\CortexM3\ARM_GCC_493\Debug\Node-Beaver.a(emFile_1_ConfigMMC_SPI.o)
                              .\emFile_V322c\LinkLibrary\PSoC5\GCC\libemf16noslfn.a(FS_Core.o) (FS_X_AddDevices)
.\emFile_V322c\LinkLibrary\PSoC5\GCC\libemf16noslfn.a(MMC_Drv.o)
                              .\CortexM3\ARM_GCC_493\Debug\Node-Beaver.a(emFile_1_ConfigMMC_SPI.o) (FS_MMC_SPI_Driver)
.\emFile_V322c\LinkLibrary\PSoC5\GCC\libemf16noslfn.a(FS_CRC16.o)
                              .\emFile_V322c\LinkLibrary\PSoC5\GCC\libemf16noslfn.a(MMC_Drv.o) (FS_CRC16_Calc)
.\CortexM3\ARM_GCC_493\Debug\Node-Beaver.a(emFile_1_MMC_HW_SPI.o)
                              .\emFile_V322c\LinkLibrary\PSoC5\GCC\libemf16noslfn.a(MMC_Drv.o) (FS_MMC_HW_X_EnableCS)
.\CortexM3\ARM_GCC_493\Debug\Node-Beaver.a(emFile_1_SPI0.o)
                              .\CortexM3\ARM_GCC_493\Debug\Node-Beaver.a(emFile_1_MMC_HW_SPI.o) (emFile_1_SPI0_ReadTxStatus)
.\CortexM3\ARM_GCC_493\Debug\Node-Beaver.a(emFile_1_Clock_1.o)
                              .\CortexM3\ARM_GCC_493\Debug\Node-Beaver.a(emFile_1_MMC_HW_SPI.o) (emFile_1_Clock_1_Start)
.\CortexM3\ARM_GCC_493\Debug\Node-Beaver.a(emFile_1_SPI0_CS.o)
                              .\CortexM3\ARM_GCC_493\Debug\Node-Beaver.a(emFile_1_MMC_HW_SPI.o) (emFile_1_SPI0_CS_Write)
d:/programming/cypress/psoc creator/4.0/psoc creator/import/gnu/arm/4.9.3/bin/../lib/gcc/arm-none-eabi/4.9.3/../../../../arm-none-eabi/lib/armv7-m\libg_nano.a(lib_a-atoi.o)
                              .\CortexM3\ARM_GCC_493\Debug\sd_manager.o (atoi)
d:/programming/cypress/psoc creator/4.0/psoc creator/import/gnu/arm/4.9.3/bin/../lib/gcc/arm-none-eabi/4.9.3/../../../../arm-none-eabi/lib/armv7-m\libg_nano.a(lib_a-errno.o)
                              .\CortexM3\ARM_GCC_493\Debug\Cm3Start.o (__errno)
d:/programming/cypress/psoc creator/4.0/psoc creator/import/gnu/arm/4.9.3/bin/../lib/gcc/arm-none-eabi/4.9.3/../../../../arm-none-eabi/lib/armv7-m\libg_nano.a(lib_a-exit.o)
                              d:/programming/cypress/psoc creator/4.0/psoc creator/import/gnu/arm/4.9.3/bin/../lib/gcc/arm-none-eabi/4.9.3/../../../../arm-none-eabi/lib/armv7-m/crt0.o (exit)
d:/programming/cypress/psoc creator/4.0/psoc creator/import/gnu/arm/4.9.3/bin/../lib/gcc/arm-none-eabi/4.9.3/../../../../arm-none-eabi/lib/armv7-m\libg_nano.a(lib_a-impure.o)
                              d:/programming/cypress/psoc creator/4.0/psoc creator/import/gnu/arm/4.9.3/bin/../lib/gcc/arm-none-eabi/4.9.3/../../../../arm-none-eabi/lib/armv7-m\libg_nano.a(lib_a-exit.o) (_global_impure_ptr)
d:/programming/cypress/psoc creator/4.0/psoc creator/import/gnu/arm/4.9.3/bin/../lib/gcc/arm-none-eabi/4.9.3/../../../../arm-none-eabi/lib/armv7-m\libg_nano.a(lib_a-init.o)
                              d:/programming/cypress/psoc creator/4.0/psoc creator/import/gnu/arm/4.9.3/bin/../lib/gcc/arm-none-eabi/4.9.3/../../../../arm-none-eabi/lib/armv7-m/crt0.o (__libc_init_array)
d:/programming/cypress/psoc creator/4.0/psoc creator/import/gnu/arm/4.9.3/bin/../lib/gcc/arm-none-eabi/4.9.3/../../../../arm-none-eabi/lib/armv7-m\libg_nano.a(lib_a-memcmp.o)
                              .\emFile_V322c\LinkLibrary\PSoC5\GCC\libemf16noslfn.a(FAT_CheckDisk.o) (memcmp)
d:/programming/cypress/psoc creator/4.0/psoc creator/import/gnu/arm/4.9.3/bin/../lib/gcc/arm-none-eabi/4.9.3/../../../../arm-none-eabi/lib/armv7-m\libg_nano.a(lib_a-memcpy.o)
                              .\CortexM3\ARM_GCC_493\Debug\Node-Beaver.a(cyfitter_cfg.o) (memcpy)
d:/programming/cypress/psoc creator/4.0/psoc creator/import/gnu/arm/4.9.3/bin/../lib/gcc/arm-none-eabi/4.9.3/../../../../arm-none-eabi/lib/armv7-m\libg_nano.a(lib_a-memset.o)
                              d:/programming/cypress/psoc creator/4.0/psoc creator/import/gnu/arm/4.9.3/bin/../lib/gcc/arm-none-eabi/4.9.3/../../../../arm-none-eabi/lib/armv7-m/crt0.o (memset)
d:/programming/cypress/psoc creator/4.0/psoc creator/import/gnu/arm/4.9.3/bin/../lib/gcc/arm-none-eabi/4.9.3/../../../../arm-none-eabi/lib/armv7-m\libg_nano.a(lib_a-sprintf.o)
                              .\CortexM3\ARM_GCC_493\Debug\sd_manager.o (sprintf)
d:/programming/cypress/psoc creator/4.0/psoc creator/import/gnu/arm/4.9.3/bin/../lib/gcc/arm-none-eabi/4.9.3/../../../../arm-none-eabi/lib/armv7-m\libg_nano.a(lib_a-strlen.o)
                              .\emFile_V322c\LinkLibrary\PSoC5\GCC\libemf16noslfn.a(FS_Storage.o) (strlen)
d:/programming/cypress/psoc creator/4.0/psoc creator/import/gnu/arm/4.9.3/bin/../lib/gcc/arm-none-eabi/4.9.3/../../../../arm-none-eabi/lib/armv7-m\libg_nano.a(lib_a-strtok.o)
                              .\CortexM3\ARM_GCC_493\Debug\sd_manager.o (strtok)
d:/programming/cypress/psoc creator/4.0/psoc creator/import/gnu/arm/4.9.3/bin/../lib/gcc/arm-none-eabi/4.9.3/../../../../arm-none-eabi/lib/armv7-m\libg_nano.a(lib_a-strtok_r.o)
                              d:/programming/cypress/psoc creator/4.0/psoc creator/import/gnu/arm/4.9.3/bin/../lib/gcc/arm-none-eabi/4.9.3/../../../../arm-none-eabi/lib/armv7-m\libg_nano.a(lib_a-strtok.o) (__strtok_r)
d:/programming/cypress/psoc creator/4.0/psoc creator/import/gnu/arm/4.9.3/bin/../lib/gcc/arm-none-eabi/4.9.3/../../../../arm-none-eabi/lib/armv7-m\libg_nano.a(lib_a-strtol.o)
                              d:/programming/cypress/psoc creator/4.0/psoc creator/import/gnu/arm/4.9.3/bin/../lib/gcc/arm-none-eabi/4.9.3/../../../../arm-none-eabi/lib/armv7-m\libg_nano.a(lib_a-atoi.o) (_strtol_r)
d:/programming/cypress/psoc creator/4.0/psoc creator/import/gnu/arm/4.9.3/bin/../lib/gcc/arm-none-eabi/4.9.3/../../../../arm-none-eabi/lib/armv7-m\libg_nano.a(lib_a-ctype_.o)
                              d:/programming/cypress/psoc creator/4.0/psoc creator/import/gnu/arm/4.9.3/bin/../lib/gcc/arm-none-eabi/4.9.3/../../../../arm-none-eabi/lib/armv7-m\libg_nano.a(lib_a-strtol.o) (__ctype_ptr__)
d:/programming/cypress/psoc creator/4.0/psoc creator/import/gnu/arm/4.9.3/bin/../lib/gcc/arm-none-eabi/4.9.3/../../../../arm-none-eabi/lib/armv7-m\libg_nano.a(lib_a-malloc.o)
                              d:/programming/cypress/psoc creator/4.0/psoc creator/import/gnu/arm/4.9.3/bin/../lib/gcc/arm-none-eabi/4.9.3/../../../../arm-none-eabi/lib/armv7-m\libg_nano.a(lib_a-strtok.o) (malloc)
d:/programming/cypress/psoc creator/4.0/psoc creator/import/gnu/arm/4.9.3/bin/../lib/gcc/arm-none-eabi/4.9.3/../../../../arm-none-eabi/lib/armv7-m\libg_nano.a(lib_a-nano-freer.o)
                              d:/programming/cypress/psoc creator/4.0/psoc creator/import/gnu/arm/4.9.3/bin/../lib/gcc/arm-none-eabi/4.9.3/../../../../arm-none-eabi/lib/armv7-m\libg_nano.a(lib_a-malloc.o) (_free_r)
d:/programming/cypress/psoc creator/4.0/psoc creator/import/gnu/arm/4.9.3/bin/../lib/gcc/arm-none-eabi/4.9.3/../../../../arm-none-eabi/lib/armv7-m\libg_nano.a(lib_a-nano-mallocr.o)
                              d:/programming/cypress/psoc creator/4.0/psoc creator/import/gnu/arm/4.9.3/bin/../lib/gcc/arm-none-eabi/4.9.3/../../../../arm-none-eabi/lib/armv7-m\libg_nano.a(lib_a-malloc.o) (_malloc_r)
d:/programming/cypress/psoc creator/4.0/psoc creator/import/gnu/arm/4.9.3/bin/../lib/gcc/arm-none-eabi/4.9.3/../../../../arm-none-eabi/lib/armv7-m\libg_nano.a(lib_a-nano-svfprintf.o)
                              d:/programming/cypress/psoc creator/4.0/psoc creator/import/gnu/arm/4.9.3/bin/../lib/gcc/arm-none-eabi/4.9.3/../../../../arm-none-eabi/lib/armv7-m\libg_nano.a(lib_a-sprintf.o) (_svfprintf_r)
d:/programming/cypress/psoc creator/4.0/psoc creator/import/gnu/arm/4.9.3/bin/../lib/gcc/arm-none-eabi/4.9.3/../../../../arm-none-eabi/lib/armv7-m\libg_nano.a(lib_a-nano-vfprintf_i.o)
                              d:/programming/cypress/psoc creator/4.0/psoc creator/import/gnu/arm/4.9.3/bin/../lib/gcc/arm-none-eabi/4.9.3/../../../../arm-none-eabi/lib/armv7-m\libg_nano.a(lib_a-nano-svfprintf.o) (_printf_i)
d:/programming/cypress/psoc creator/4.0/psoc creator/import/gnu/arm/4.9.3/bin/../lib/gcc/arm-none-eabi/4.9.3/../../../../arm-none-eabi/lib/armv7-m\libg_nano.a(lib_a-sbrkr.o)
                              d:/programming/cypress/psoc creator/4.0/psoc creator/import/gnu/arm/4.9.3/bin/../lib/gcc/arm-none-eabi/4.9.3/../../../../arm-none-eabi/lib/armv7-m\libg_nano.a(lib_a-nano-mallocr.o) (_sbrk_r)
d:/programming/cypress/psoc creator/4.0/psoc creator/import/gnu/arm/4.9.3/bin/../lib/gcc/arm-none-eabi/4.9.3/../../../../arm-none-eabi/lib/armv7-m\libg_nano.a(lib_a-memchr.o)
                              d:/programming/cypress/psoc creator/4.0/psoc creator/import/gnu/arm/4.9.3/bin/../lib/gcc/arm-none-eabi/4.9.3/../../../../arm-none-eabi/lib/armv7-m\libg_nano.a(lib_a-nano-svfprintf.o) (memchr)
d:/programming/cypress/psoc creator/4.0/psoc creator/import/gnu/arm/4.9.3/bin/../lib/gcc/arm-none-eabi/4.9.3/../../../../arm-none-eabi/lib/armv7-m\libg_nano.a(lib_a-memmove.o)
                              d:/programming/cypress/psoc creator/4.0/psoc creator/import/gnu/arm/4.9.3/bin/../lib/gcc/arm-none-eabi/4.9.3/../../../../arm-none-eabi/lib/armv7-m\libg_nano.a(lib_a-nano-svfprintf.o) (memmove)
d:/programming/cypress/psoc creator/4.0/psoc creator/import/gnu/arm/4.9.3/bin/../lib/gcc/arm-none-eabi/4.9.3/../../../../arm-none-eabi/lib/armv7-m\libg_nano.a(lib_a-nano-reallocr.o)
                              d:/programming/cypress/psoc creator/4.0/psoc creator/import/gnu/arm/4.9.3/bin/../lib/gcc/arm-none-eabi/4.9.3/../../../../arm-none-eabi/lib/armv7-m\libg_nano.a(lib_a-nano-svfprintf.o) (_realloc_r)
d:/programming/cypress/psoc creator/4.0/psoc creator/import/gnu/arm/4.9.3/bin/../lib/gcc/arm-none-eabi/4.9.3/../../../../arm-none-eabi/lib/armv7-m\libg_nano.a(lib_a-reent.o)
                              d:/programming/cypress/psoc creator/4.0/psoc creator/import/gnu/arm/4.9.3/bin/../lib/gcc/arm-none-eabi/4.9.3/../../../../arm-none-eabi/lib/armv7-m\libg_nano.a(lib_a-sbrkr.o) (errno)
d:/programming/cypress/psoc creator/4.0/psoc creator/import/gnu/arm/4.9.3/bin/../lib/gcc/arm-none-eabi/4.9.3/../../../../arm-none-eabi/lib/armv7-m\libg_nano.a(lib_a-nano-msizer.o)
                              d:/programming/cypress/psoc creator/4.0/psoc creator/import/gnu/arm/4.9.3/bin/../lib/gcc/arm-none-eabi/4.9.3/../../../../arm-none-eabi/lib/armv7-m\libg_nano.a(lib_a-nano-reallocr.o) (_malloc_usable_size_r)

Allocating common symbols
Common symbol       size              file

USBUART_1_interfaceSettingLast
                    0x2               .\CortexM3\ARM_GCC_493\Debug\Node-Beaver.a(USBUART_1_drv.o)
rtc_i2c_state       0x1               .\CortexM3\ARM_GCC_493\Debug\Node-Beaver.a(rtc_i2c.o)
USBUART_1_cdcDataInEp
                    0x2               .\CortexM3\ARM_GCC_493\Debug\Node-Beaver.a(USBUART_1_cdc.o)
FS_Global           0x80              .\emFile_V322c\LinkLibrary\PSoC5\GCC\libemf16noslfn.a(FS_Core.o)
errno               0x4               d:/programming/cypress/psoc creator/4.0/psoc creator/import/gnu/arm/4.9.3/bin/../lib/gcc/arm-none-eabi/4.9.3/../../../../arm-none-eabi/lib/armv7-m\libg_nano.a(lib_a-reent.o)
USBUART_1_ep0Mode   0x1               .\CortexM3\ARM_GCC_493\Debug\Node-Beaver.a(USBUART_1_drv.o)
rtc_i2c_mstrStatus  0x1               .\CortexM3\ARM_GCC_493\Debug\Node-Beaver.a(rtc_i2c_MASTER.o)
LGR_HB              0xc               .\CortexM3\ARM_GCC_493\Debug\can_manager.o
emFile_1_SPI0_swStatusRx
                    0x1               .\CortexM3\ARM_GCC_493\Debug\Node-Beaver.a(emFile_1_SPI0.o)
rtc_i2c_mstrWrBufIndex
                    0x1               .\CortexM3\ARM_GCC_493\Debug\Node-Beaver.a(rtc_i2c_MASTER.o)
current_time        0x10              .\CortexM3\ARM_GCC_493\Debug\time_manager.o
USBUART_1_lastPacketSize
                    0x1               .\CortexM3\ARM_GCC_493\Debug\Node-Beaver.a(USBUART_1_drv.o)
CURTIS_RCVACK       0x10              .\CortexM3\ARM_GCC_493\Debug\can_manager.o
BRAKE               0x10              .\CortexM3\ARM_GCC_493\Debug\can_manager.o
LOGGER_HEARTBEAT    0x10              .\CortexM3\ARM_GCC_493\Debug\can_manager.o
CURTIS_VOLTAGE      0x10              .\CortexM3\ARM_GCC_493\Debug\can_manager.o
THROTTLE            0x10              .\CortexM3\ARM_GCC_493\Debug\can_manager.o
USBUART_1_configurationChanged
                    0x1               .\CortexM3\ARM_GCC_493\Debug\Node-Beaver.a(USBUART_1_drv.o)
USBUART_1_configuration
                    0x1               .\CortexM3\ARM_GCC_493\Debug\Node-Beaver.a(USBUART_1_drv.o)
USBUART_1_interfaceNumber
                    0x1               .\CortexM3\ARM_GCC_493\Debug\Node-Beaver.a(USBUART_1_drv.o)
USBUART_1_deviceStatus
                    0x1               .\CortexM3\ARM_GCC_493\Debug\Node-Beaver.a(USBUART_1_drv.o)
rtc_i2c_mstrWrBufSize
                    0x1               .\CortexM3\ARM_GCC_493\Debug\Node-Beaver.a(rtc_i2c_MASTER.o)
USBUART_1_cdcDataOutEp
                    0x2               .\CortexM3\ARM_GCC_493\Debug\Node-Beaver.a(USBUART_1_cdc.o)
USBUART_1_cdcCommInInterruptEp
                    0x2               .\CortexM3\ARM_GCC_493\Debug\Node-Beaver.a(USBUART_1_cdc.o)
rtc_i2c_mstrControl
                    0x1               .\CortexM3\ARM_GCC_493\Debug\Node-Beaver.a(rtc_i2c_MASTER.o)
DASH                0x10              .\CortexM3\ARM_GCC_493\Debug\can_manager.o
USBUART_1_ep0Toggle
                    0x1               .\CortexM3\ARM_GCC_493\Debug\Node-Beaver.a(USBUART_1_drv.o)
USBUART_1_serialStateBitmap
                    0x4               .\CortexM3\ARM_GCC_493\Debug\Node-Beaver.a(USBUART_1_cdc.o)
USBUART_1_linesChanged
                    0x2               .\CortexM3\ARM_GCC_493\Debug\Node-Beaver.a(USBUART_1_cdc.o)
BMS_STATUS          0x10              .\CortexM3\ARM_GCC_493\Debug\can_manager.o
CURTIS_DEBUG        0x10              .\CortexM3\ARM_GCC_493\Debug\can_manager.o
USBUART_1_interfaceClass
                    0x4               .\CortexM3\ARM_GCC_493\Debug\Node-Beaver.a(USBUART_1_drv.o)
USBUART_1_linesControlBitmap
                    0x4               .\CortexM3\ARM_GCC_493\Debug\Node-Beaver.a(USBUART_1_cdc.o)
data                0x8               .\CortexM3\ARM_GCC_493\Debug\can_manager.o
USBUART_1_interfaceSetting
                    0x2               .\CortexM3\ARM_GCC_493\Debug\Node-Beaver.a(USBUART_1_drv.o)
USBUART_1_currentTD
                    0xc               .\CortexM3\ARM_GCC_493\Debug\Node-Beaver.a(USBUART_1_drv.o)
rtc_i2c_mstrRdBufPtr
                    0x4               .\CortexM3\ARM_GCC_493\Debug\Node-Beaver.a(rtc_i2c_MASTER.o)
sd_queue            0x4000            .\CortexM3\ARM_GCC_493\Debug\sd_manager.o
USBUART_1_ep0Count  0x1               .\CortexM3\ARM_GCC_493\Debug\Node-Beaver.a(USBUART_1_drv.o)
CURTIS_RCV          0x10              .\CortexM3\ARM_GCC_493\Debug\can_manager.o
xbee_UART_rxBuffer  0x5               .\CortexM3\ARM_GCC_493\Debug\Node-Beaver.a(xbee_UART.o)
BMS_VOLTAGE         0x10              .\CortexM3\ARM_GCC_493\Debug\can_manager.o
FS_NumBytesAllocated
                    0x4               .\emFile_V322c\LinkLibrary\PSoC5\GCC\libemf16noslfn.a(FS_Core.o)
pfile               0x4               .\CortexM3\ARM_GCC_493\Debug\sd_manager.o
USBUART_1_EP        0x6c              .\CortexM3\ARM_GCC_493\Debug\Node-Beaver.a(USBUART_1_drv.o)
rtc_i2c_mstrWrBufPtr
                    0x4               .\CortexM3\ARM_GCC_493\Debug\Node-Beaver.a(rtc_i2c_MASTER.o)
rtc_i2c_mstrRdBufSize
                    0x1               .\CortexM3\ARM_GCC_493\Debug\Node-Beaver.a(rtc_i2c_MASTER.o)
USBUART_1_transferByteCount
                    0x2               .\CortexM3\ARM_GCC_493\Debug\Node-Beaver.a(USBUART_1_drv.o)
USBUART_1_transferState
                    0x1               .\CortexM3\ARM_GCC_493\Debug\Node-Beaver.a(USBUART_1_drv.o)
USBUART_1_device    0x1               .\CortexM3\ARM_GCC_493\Debug\Node-Beaver.a(USBUART_1_drv.o)
FS_STORAGE_Counters
                    0x14              .\emFile_V322c\LinkLibrary\PSoC5\GCC\libemf16noslfn.a(FS_Storage.o)
dieTemperature      0x2               .\CortexM3\ARM_GCC_493\Debug\Node-Beaver.a(CyFlash.o)
USBUART_1_interfaceStatus
                    0x2               .\CortexM3\ARM_GCC_493\Debug\Node-Beaver.a(USBUART_1_drv.o)
BMS_TEMP            0x10              .\CortexM3\ARM_GCC_493\Debug\can_manager.o
CURTIS_STATUS       0x10              .\CortexM3\ARM_GCC_493\Debug\can_manager.o
USBUART_1_deviceAddress
                    0x1               .\CortexM3\ARM_GCC_493\Debug\Node-Beaver.a(USBUART_1_drv.o)
USBUART_1_idSerialNumberStringDescriptor
                    0x22              .\CortexM3\ARM_GCC_493\Debug\Node-Beaver.a(USBUART_1_descr.o)
emFile_1_SPI0_swStatusTx
                    0x1               .\CortexM3\ARM_GCC_493\Debug\Node-Beaver.a(emFile_1_SPI0.o)
rtc_i2c_mstrRdBufIndex
                    0x1               .\CortexM3\ARM_GCC_493\Debug\Node-Beaver.a(rtc_i2c_MASTER.o)

Discarded input sections

 .text          0x00000000        0x0 d:/programming/cypress/psoc creator/4.0/psoc creator/import/gnu/arm/4.9.3/bin/../lib/gcc/arm-none-eabi/4.9.3/armv7-m/crti.o
 .data          0x00000000        0x0 d:/programming/cypress/psoc creator/4.0/psoc creator/import/gnu/arm/4.9.3/bin/../lib/gcc/arm-none-eabi/4.9.3/armv7-m/crti.o
 .bss           0x00000000        0x0 d:/programming/cypress/psoc creator/4.0/psoc creator/import/gnu/arm/4.9.3/bin/../lib/gcc/arm-none-eabi/4.9.3/armv7-m/crti.o
 .data          0x00000000        0x4 d:/programming/cypress/psoc creator/4.0/psoc creator/import/gnu/arm/4.9.3/bin/../lib/gcc/arm-none-eabi/4.9.3/armv7-m/crtbegin.o
 .text          0x00000000       0x74 d:/programming/cypress/psoc creator/4.0/psoc creator/import/gnu/arm/4.9.3/bin/../lib/gcc/arm-none-eabi/4.9.3/../../../../arm-none-eabi/lib/armv7-m/crt0.o
 .data          0x00000000        0x0 d:/programming/cypress/psoc creator/4.0/psoc creator/import/gnu/arm/4.9.3/bin/../lib/gcc/arm-none-eabi/4.9.3/../../../../arm-none-eabi/lib/armv7-m/crt0.o
 .bss           0x00000000        0x0 d:/programming/cypress/psoc creator/4.0/psoc creator/import/gnu/arm/4.9.3/bin/../lib/gcc/arm-none-eabi/4.9.3/../../../../arm-none-eabi/lib/armv7-m/crt0.o
 .ARM.extab     0x00000000        0x0 d:/programming/cypress/psoc creator/4.0/psoc creator/import/gnu/arm/4.9.3/bin/../lib/gcc/arm-none-eabi/4.9.3/../../../../arm-none-eabi/lib/armv7-m/crt0.o
 .ARM.exidx     0x00000000        0x8 d:/programming/cypress/psoc creator/4.0/psoc creator/import/gnu/arm/4.9.3/bin/../lib/gcc/arm-none-eabi/4.9.3/../../../../arm-none-eabi/lib/armv7-m/crt0.o
 .text          0x00000000        0x0 .\CortexM3\ARM_GCC_493\Debug\main.o
 .data          0x00000000        0x0 .\CortexM3\ARM_GCC_493\Debug\main.o
 .bss           0x00000000        0x0 .\CortexM3\ARM_GCC_493\Debug\main.o
 .text          0x00000000        0x0 .\CortexM3\ARM_GCC_493\Debug\can_manager.o
 .data          0x00000000        0x0 .\CortexM3\ARM_GCC_493\Debug\can_manager.o
 .bss           0x00000000        0x0 .\CortexM3\ARM_GCC_493\Debug\can_manager.o
 .text.can_test_send
                0x00000000       0x50 .\CortexM3\ARM_GCC_493\Debug\can_manager.o
 .text.can_test_receive
                0x00000000       0x58 .\CortexM3\ARM_GCC_493\Debug\can_manager.o
 .text          0x00000000        0x0 .\CortexM3\ARM_GCC_493\Debug\sd_manager.o
 .data          0x00000000        0x0 .\CortexM3\ARM_GCC_493\Debug\sd_manager.o
 .text.sd_read  0x00000000       0x48 .\CortexM3\ARM_GCC_493\Debug\sd_manager.o
 .text.sd_writetest
                0x00000000       0x78 .\CortexM3\ARM_GCC_493\Debug\sd_manager.o
 .text          0x00000000        0x0 .\CortexM3\ARM_GCC_493\Debug\usb_manager.o
 .data          0x00000000        0x8 .\CortexM3\ARM_GCC_493\Debug\usb_manager.o
 .bss           0x00000000        0x0 .\CortexM3\ARM_GCC_493\Debug\usb_manager.o
 .text.usb_escape
                0x00000000       0x70 .\CortexM3\ARM_GCC_493\Debug\usb_manager.o
 .text.usb_get  0x00000000       0x40 .\CortexM3\ARM_GCC_493\Debug\usb_manager.o
 .text          0x00000000        0x0 .\CortexM3\ARM_GCC_493\Debug\radio_manager.o
 .data          0x00000000        0x0 .\CortexM3\ARM_GCC_493\Debug\radio_manager.o
 .bss           0x00000000        0x0 .\CortexM3\ARM_GCC_493\Debug\radio_manager.o
 .text          0x00000000        0x0 .\CortexM3\ARM_GCC_493\Debug\time_manager.o
 .data          0x00000000        0x0 .\CortexM3\ARM_GCC_493\Debug\time_manager.o
 .bss           0x00000000        0x0 .\CortexM3\ARM_GCC_493\Debug\time_manager.o
 .text.wdt_reset_interupt
                0x00000000        0xc .\CortexM3\ARM_GCC_493\Debug\time_manager.o
 .text.wdt_init
                0x00000000       0x1c .\CortexM3\ARM_GCC_493\Debug\time_manager.o
 .text          0x00000000        0x0 .\CortexM3\ARM_GCC_493\Debug\cymetadata.o
 .data          0x00000000        0x0 .\CortexM3\ARM_GCC_493\Debug\cymetadata.o
 .bss           0x00000000        0x0 .\CortexM3\ARM_GCC_493\Debug\cymetadata.o
 .text          0x00000000        0x0 .\CortexM3\ARM_GCC_493\Debug\Cm3Start.o
 .bss           0x00000000        0x0 .\CortexM3\ARM_GCC_493\Debug\Cm3Start.o
 .text._exit    0x00000000       0x14 .\CortexM3\ARM_GCC_493\Debug\Cm3Start.o
 .text          0x00000000        0x0 .\CortexM3\ARM_GCC_493\Debug\Node-Beaver.a(cyfitter_cfg.o)
 .data          0x00000000        0x0 .\CortexM3\ARM_GCC_493\Debug\Node-Beaver.a(cyfitter_cfg.o)
 .bss           0x00000000        0x0 .\CortexM3\ARM_GCC_493\Debug\Node-Beaver.a(cyfitter_cfg.o)
 .text.CYCONFIGCPYCODE
                0x00000000       0x1c .\CortexM3\ARM_GCC_493\Debug\Node-Beaver.a(cyfitter_cfg.o)
 .text.SetAnalogRoutingPumps
                0x00000000       0x3c .\CortexM3\ARM_GCC_493\Debug\Node-Beaver.a(cyfitter_cfg.o)
 .text          0x00000000        0x0 .\CortexM3\ARM_GCC_493\Debug\Node-Beaver.a(CyLib.o)
 .bss           0x00000000       0x1c .\CortexM3\ARM_GCC_493\Debug\Node-Beaver.a(CyLib.o)
 .text.CyPLL_OUT_Start
                0x00000000       0xb0 .\CortexM3\ARM_GCC_493\Debug\Node-Beaver.a(CyLib.o)
 .text.CyPLL_OUT_Stop
                0x00000000       0x20 .\CortexM3\ARM_GCC_493\Debug\Node-Beaver.a(CyLib.o)
 .text.CyPLL_OUT_SetPQ
                0x00000000       0x90 .\CortexM3\ARM_GCC_493\Debug\Node-Beaver.a(CyLib.o)
 .text.CyPLL_OUT_SetSource
                0x00000000       0x54 .\CortexM3\ARM_GCC_493\Debug\Node-Beaver.a(CyLib.o)
 .text.CyIMO_Start
                0x00000000       0x94 .\CortexM3\ARM_GCC_493\Debug\Node-Beaver.a(CyLib.o)
 .text.CyIMO_Stop
                0x00000000       0x34 .\CortexM3\ARM_GCC_493\Debug\Node-Beaver.a(CyLib.o)
 .text.CyUSB_PowerOnCheck
                0x00000000       0x60 .\CortexM3\ARM_GCC_493\Debug\Node-Beaver.a(CyLib.o)
 .text.CyIMO_SetTrimValue
                0x00000000      0x108 .\CortexM3\ARM_GCC_493\Debug\Node-Beaver.a(CyLib.o)
 .text.CyIMO_SetFreq
                0x00000000      0x1ac .\CortexM3\ARM_GCC_493\Debug\Node-Beaver.a(CyLib.o)
 .text.CyIMO_SetSource
                0x00000000       0x8c .\CortexM3\ARM_GCC_493\Debug\Node-Beaver.a(CyLib.o)
 .text.CyIMO_EnableDoubler
                0x00000000       0x20 .\CortexM3\ARM_GCC_493\Debug\Node-Beaver.a(CyLib.o)
 .text.CyIMO_DisableDoubler
                0x00000000       0x20 .\CortexM3\ARM_GCC_493\Debug\Node-Beaver.a(CyLib.o)
 .text.CyMasterClk_SetSource
                0x00000000       0x34 .\CortexM3\ARM_GCC_493\Debug\Node-Beaver.a(CyLib.o)
 .text.CyMasterClk_SetDivider
                0x00000000       0x20 .\CortexM3\ARM_GCC_493\Debug\Node-Beaver.a(CyLib.o)
 .text.CyBusClk_Internal_SetDivider
                0x00000000       0x78 .\CortexM3\ARM_GCC_493\Debug\Node-Beaver.a(CyLib.o)
 .text.CyBusClk_SetDivider
                0x00000000       0xb4 .\CortexM3\ARM_GCC_493\Debug\Node-Beaver.a(CyLib.o)
 .text.CyUsbClk_SetSource
                0x00000000       0x34 .\CortexM3\ARM_GCC_493\Debug\Node-Beaver.a(CyLib.o)
 .text.CyILO_Start1K
                0x00000000       0x20 .\CortexM3\ARM_GCC_493\Debug\Node-Beaver.a(CyLib.o)
 .text.CyILO_Stop1K
                0x00000000       0x20 .\CortexM3\ARM_GCC_493\Debug\Node-Beaver.a(CyLib.o)
 .text.CyILO_Start100K
                0x00000000       0x20 .\CortexM3\ARM_GCC_493\Debug\Node-Beaver.a(CyLib.o)
 .text.CyILO_Stop100K
                0x00000000       0x20 .\CortexM3\ARM_GCC_493\Debug\Node-Beaver.a(CyLib.o)
 .text.CyILO_Enable33K
                0x00000000       0x20 .\CortexM3\ARM_GCC_493\Debug\Node-Beaver.a(CyLib.o)
 .text.CyILO_Disable33K
                0x00000000       0x20 .\CortexM3\ARM_GCC_493\Debug\Node-Beaver.a(CyLib.o)
 .text.CyILO_SetSource
                0x00000000       0x38 .\CortexM3\ARM_GCC_493\Debug\Node-Beaver.a(CyLib.o)
 .text.CyILO_SetPowerMode
                0x00000000       0x4c .\CortexM3\ARM_GCC_493\Debug\Node-Beaver.a(CyLib.o)
 .text.CyXTAL_32KHZ_Start
                0x00000000       0x84 .\CortexM3\ARM_GCC_493\Debug\Node-Beaver.a(CyLib.o)
 .text.CyXTAL_32KHZ_Stop
                0x00000000       0x50 .\CortexM3\ARM_GCC_493\Debug\Node-Beaver.a(CyLib.o)
 .text.CyXTAL_32KHZ_ReadStatus
                0x00000000       0x20 .\CortexM3\ARM_GCC_493\Debug\Node-Beaver.a(CyLib.o)
 .text.CyXTAL_32KHZ_SetPowerMode
                0x00000000       0xb4 .\CortexM3\ARM_GCC_493\Debug\Node-Beaver.a(CyLib.o)
 .text.CyXTAL_Start
                0x00000000       0xd0 .\CortexM3\ARM_GCC_493\Debug\Node-Beaver.a(CyLib.o)
 .text.CyXTAL_Stop
                0x00000000       0x20 .\CortexM3\ARM_GCC_493\Debug\Node-Beaver.a(CyLib.o)
 .text.CyXTAL_EnableErrStatus
                0x00000000       0x20 .\CortexM3\ARM_GCC_493\Debug\Node-Beaver.a(CyLib.o)
 .text.CyXTAL_DisableErrStatus
                0x00000000       0x20 .\CortexM3\ARM_GCC_493\Debug\Node-Beaver.a(CyLib.o)
 .text.CyXTAL_ReadStatus
                0x00000000       0x28 .\CortexM3\ARM_GCC_493\Debug\Node-Beaver.a(CyLib.o)
 .text.CyXTAL_EnableFaultRecovery
                0x00000000       0x20 .\CortexM3\ARM_GCC_493\Debug\Node-Beaver.a(CyLib.o)
 .text.CyXTAL_DisableFaultRecovery
                0x00000000       0x20 .\CortexM3\ARM_GCC_493\Debug\Node-Beaver.a(CyLib.o)
 .text.CyXTAL_SetStartup
                0x00000000       0x34 .\CortexM3\ARM_GCC_493\Debug\Node-Beaver.a(CyLib.o)
 .text.CyXTAL_SetFbVoltage
                0x00000000       0x34 .\CortexM3\ARM_GCC_493\Debug\Node-Beaver.a(CyLib.o)
 .text.CyXTAL_SetWdVoltage
                0x00000000       0x38 .\CortexM3\ARM_GCC_493\Debug\Node-Beaver.a(CyLib.o)
 .text.CySoftwareReset
                0x00000000       0x20 .\CortexM3\ARM_GCC_493\Debug\Node-Beaver.a(CyLib.o)
 .text.CyDelayFreq
                0x00000000       0x7c .\CortexM3\ARM_GCC_493\Debug\Node-Beaver.a(CyLib.o)
 .text.CyWdtStart
                0x00000000       0x8c .\CortexM3\ARM_GCC_493\Debug\Node-Beaver.a(CyLib.o)
 .text.CyWdtClear
                0x00000000       0x18 .\CortexM3\ARM_GCC_493\Debug\Node-Beaver.a(CyLib.o)
 .text.CyVdLvDigitEnable
                0x00000000       0xcc .\CortexM3\ARM_GCC_493\Debug\Node-Beaver.a(CyLib.o)
 .text.CyVdLvAnalogEnable
                0x00000000       0xc8 .\CortexM3\ARM_GCC_493\Debug\Node-Beaver.a(CyLib.o)
 .text.CyVdLvDigitDisable
                0x00000000       0x48 .\CortexM3\ARM_GCC_493\Debug\Node-Beaver.a(CyLib.o)
 .text.CyVdLvAnalogDisable
                0x00000000       0x40 .\CortexM3\ARM_GCC_493\Debug\Node-Beaver.a(CyLib.o)
 .text.CyVdHvAnalogEnable
                0x00000000       0x78 .\CortexM3\ARM_GCC_493\Debug\Node-Beaver.a(CyLib.o)
 .text.CyVdHvAnalogDisable
                0x00000000       0x2c .\CortexM3\ARM_GCC_493\Debug\Node-Beaver.a(CyLib.o)
 .text.CyVdStickyStatus
                0x00000000       0x5c .\CortexM3\ARM_GCC_493\Debug\Node-Beaver.a(CyLib.o)
 .text.CyVdRealTimeStatus
                0x00000000       0x30 .\CortexM3\ARM_GCC_493\Debug\Node-Beaver.a(CyLib.o)
 .text.CyDisableInts
                0x00000000       0x34 .\CortexM3\ARM_GCC_493\Debug\Node-Beaver.a(CyLib.o)
 .text.CyEnableInts
                0x00000000       0x28 .\CortexM3\ARM_GCC_493\Debug\Node-Beaver.a(CyLib.o)
 .text.CyFlushCache
                0x00000000       0x58 .\CortexM3\ARM_GCC_493\Debug\Node-Beaver.a(CyLib.o)
 .text.CyIntSetSysVector
                0x00000000       0x4c .\CortexM3\ARM_GCC_493\Debug\Node-Beaver.a(CyLib.o)
 .text.CyIntGetSysVector
                0x00000000       0x38 .\CortexM3\ARM_GCC_493\Debug\Node-Beaver.a(CyLib.o)
 .text.CyIntGetVector
                0x00000000       0x38 .\CortexM3\ARM_GCC_493\Debug\Node-Beaver.a(CyLib.o)
 .text.CyIntGetPriority
                0x00000000       0x38 .\CortexM3\ARM_GCC_493\Debug\Node-Beaver.a(CyLib.o)
 .text.CyIntGetState
                0x00000000       0x44 .\CortexM3\ARM_GCC_493\Debug\Node-Beaver.a(CyLib.o)
 .text.CySysTickStart
                0x00000000       0x20 .\CortexM3\ARM_GCC_493\Debug\Node-Beaver.a(CyLib.o)
 .text.CySysTickInit
                0x00000000       0x68 .\CortexM3\ARM_GCC_493\Debug\Node-Beaver.a(CyLib.o)
 .text.CySysTickEnable
                0x00000000       0x1c .\CortexM3\ARM_GCC_493\Debug\Node-Beaver.a(CyLib.o)
 .text.CySysTickStop
                0x00000000       0x1c .\CortexM3\ARM_GCC_493\Debug\Node-Beaver.a(CyLib.o)
 .text.CySysTickEnableInterrupt
                0x00000000       0x1c .\CortexM3\ARM_GCC_493\Debug\Node-Beaver.a(CyLib.o)
 .text.CySysTickDisableInterrupt
                0x00000000       0x1c .\CortexM3\ARM_GCC_493\Debug\Node-Beaver.a(CyLib.o)
 .text.CySysTickSetReload
                0x00000000       0x20 .\CortexM3\ARM_GCC_493\Debug\Node-Beaver.a(CyLib.o)
 .text.CySysTickGetReload
                0x00000000       0x1c .\CortexM3\ARM_GCC_493\Debug\Node-Beaver.a(CyLib.o)
 .text.CySysTickGetValue
                0x00000000       0x1c .\CortexM3\ARM_GCC_493\Debug\Node-Beaver.a(CyLib.o)
 .text.CySysTickSetClockSource
                0x00000000       0x38 .\CortexM3\ARM_GCC_493\Debug\Node-Beaver.a(CyLib.o)
 .text.CySysTickGetClockSource
                0x00000000       0x1c .\CortexM3\ARM_GCC_493\Debug\Node-Beaver.a(CyLib.o)
 .text.CySysTickGetCountFlag
                0x00000000       0x1c .\CortexM3\ARM_GCC_493\Debug\Node-Beaver.a(CyLib.o)
 .text.CySysTickClear
                0x00000000       0x18 .\CortexM3\ARM_GCC_493\Debug\Node-Beaver.a(CyLib.o)
 .text.CySysTickSetCallback
                0x00000000       0x30 .\CortexM3\ARM_GCC_493\Debug\Node-Beaver.a(CyLib.o)
 .text.CySysTickGetCallback
                0x00000000       0x20 .\CortexM3\ARM_GCC_493\Debug\Node-Beaver.a(CyLib.o)
 .text.CySysTickServiceCallbacks
                0x00000000       0x44 .\CortexM3\ARM_GCC_493\Debug\Node-Beaver.a(CyLib.o)
 .text          0x00000000        0x0 .\CortexM3\ARM_GCC_493\Debug\Node-Beaver.a(cyPm.o)
 .data          0x00000000        0x0 .\CortexM3\ARM_GCC_493\Debug\Node-Beaver.a(cyPm.o)
 .bss           0x00000000       0x44 .\CortexM3\ARM_GCC_493\Debug\Node-Beaver.a(cyPm.o)
 .rodata        0x00000000       0x10 .\CortexM3\ARM_GCC_493\Debug\Node-Beaver.a(cyPm.o)
 .text.CyPmSaveClocks
                0x00000000      0x284 .\CortexM3\ARM_GCC_493\Debug\Node-Beaver.a(cyPm.o)
 .text.CyPmRestoreClocks
                0x00000000      0x300 .\CortexM3\ARM_GCC_493\Debug\Node-Beaver.a(cyPm.o)
 .text.CyPmAltAct
                0x00000000       0xb8 .\CortexM3\ARM_GCC_493\Debug\Node-Beaver.a(cyPm.o)
 .text.CyPmSleep
                0x00000000      0x170 .\CortexM3\ARM_GCC_493\Debug\Node-Beaver.a(cyPm.o)
 .text.CyPmHibernate
                0x00000000        0xc .\CortexM3\ARM_GCC_493\Debug\Node-Beaver.a(cyPm.o)
 .text.CyPmHibernateEx
                0x00000000      0x158 .\CortexM3\ARM_GCC_493\Debug\Node-Beaver.a(cyPm.o)
 .text.CyPmReadStatus
                0x00000000       0x5c .\CortexM3\ARM_GCC_493\Debug\Node-Beaver.a(cyPm.o)
 .text.CyPmHibSaveSet
                0x00000000       0xd4 .\CortexM3\ARM_GCC_493\Debug\Node-Beaver.a(cyPm.o)
 .text.CyPmHibRestore
                0x00000000       0x68 .\CortexM3\ARM_GCC_493\Debug\Node-Beaver.a(cyPm.o)
 .text.CyPmCtwSetInterval
                0x00000000       0x90 .\CortexM3\ARM_GCC_493\Debug\Node-Beaver.a(cyPm.o)
 .text.CyPmOppsSet
                0x00000000       0x40 .\CortexM3\ARM_GCC_493\Debug\Node-Beaver.a(cyPm.o)
 .text.CyPmFtwSetInterval
                0x00000000       0x90 .\CortexM3\ARM_GCC_493\Debug\Node-Beaver.a(cyPm.o)
 .text.CyPmHibSlpSaveSet
                0x00000000      0x280 .\CortexM3\ARM_GCC_493\Debug\Node-Beaver.a(cyPm.o)
 .text.CyPmHibSlpRestore
                0x00000000      0x188 .\CortexM3\ARM_GCC_493\Debug\Node-Beaver.a(cyPm.o)
 .text.CyPmHviLviSaveDisable
                0x00000000       0xd4 .\CortexM3\ARM_GCC_493\Debug\Node-Beaver.a(cyPm.o)
 .text.CyPmHviLviRestore
                0x00000000       0x54 .\CortexM3\ARM_GCC_493\Debug\Node-Beaver.a(cyPm.o)
 .text          0x00000000        0x0 .\CortexM3\ARM_GCC_493\Debug\Node-Beaver.a(CAN_1.o)
 .data          0x00000000        0x0 .\CortexM3\ARM_GCC_493\Debug\Node-Beaver.a(CAN_1.o)
 .text.CAN_1_Stop
                0x00000000       0x94 .\CortexM3\ARM_GCC_493\Debug\Node-Beaver.a(CAN_1.o)
 .text.CAN_1_GlobalIntDisable
                0x00000000       0x40 .\CortexM3\ARM_GCC_493\Debug\Node-Beaver.a(CAN_1.o)
 .text.CAN_1_SetOpMode
                0x00000000       0xc8 .\CortexM3\ARM_GCC_493\Debug\Node-Beaver.a(CAN_1.o)
 .text.CAN_1_RXRegisterInit
                0x00000000       0xa4 .\CortexM3\ARM_GCC_493\Debug\Node-Beaver.a(CAN_1.o)
 .text.CAN_1_GetTXErrorFlag
                0x00000000       0x28 .\CortexM3\ARM_GCC_493\Debug\Node-Beaver.a(CAN_1.o)
 .text.CAN_1_GetRXErrorFlag
                0x00000000       0x28 .\CortexM3\ARM_GCC_493\Debug\Node-Beaver.a(CAN_1.o)
 .text.CAN_1_GetTXErrorCount
                0x00000000       0x18 .\CortexM3\ARM_GCC_493\Debug\Node-Beaver.a(CAN_1.o)
 .text.CAN_1_GetRXErrorCount
                0x00000000       0x18 .\CortexM3\ARM_GCC_493\Debug\Node-Beaver.a(CAN_1.o)
 .text.CAN_1_GetErrorState
                0x00000000       0x20 .\CortexM3\ARM_GCC_493\Debug\Node-Beaver.a(CAN_1.o)
 .text          0x00000000        0x0 .\CortexM3\ARM_GCC_493\Debug\Node-Beaver.a(CAN_1_INT.o)
 .data          0x00000000        0x0 .\CortexM3\ARM_GCC_493\Debug\Node-Beaver.a(CAN_1_INT.o)
 .bss           0x00000000        0x0 .\CortexM3\ARM_GCC_493\Debug\Node-Beaver.a(CAN_1_INT.o)
 .text          0x00000000        0x0 .\CortexM3\ARM_GCC_493\Debug\Node-Beaver.a(CAN_1_TX_RX_func.o)
 .data          0x00000000        0x0 .\CortexM3\ARM_GCC_493\Debug\Node-Beaver.a(CAN_1_TX_RX_func.o)
 .bss           0x00000000        0x0 .\CortexM3\ARM_GCC_493\Debug\Node-Beaver.a(CAN_1_TX_RX_func.o)
 .text.CAN_1_TxCancel
                0x00000000       0x44 .\CortexM3\ARM_GCC_493\Debug\Node-Beaver.a(CAN_1_TX_RX_func.o)
 .text          0x00000000        0x0 .\CortexM3\ARM_GCC_493\Debug\Node-Beaver.a(LED.o)
 .data          0x00000000        0x0 .\CortexM3\ARM_GCC_493\Debug\Node-Beaver.a(LED.o)
 .bss           0x00000000        0x0 .\CortexM3\ARM_GCC_493\Debug\Node-Beaver.a(LED.o)
 .text.LED_SetDriveMode
                0x00000000       0x38 .\CortexM3\ARM_GCC_493\Debug\Node-Beaver.a(LED.o)
 .text.LED_Read
                0x00000000       0x1c .\CortexM3\ARM_GCC_493\Debug\Node-Beaver.a(LED.o)
 .text.LED_ReadDataReg
                0x00000000       0x1c .\CortexM3\ARM_GCC_493\Debug\Node-Beaver.a(LED.o)
 .text          0x00000000        0x0 .\CortexM3\ARM_GCC_493\Debug\Node-Beaver.a(USBUART_1.o)
 .data          0x00000000        0x0 .\CortexM3\ARM_GCC_493\Debug\Node-Beaver.a(USBUART_1.o)
 .text.USBUART_1_Stop
                0x00000000      0x10c .\CortexM3\ARM_GCC_493\Debug\Node-Beaver.a(USBUART_1.o)
 .text.USBUART_1_CheckActivity
                0x00000000       0x38 .\CortexM3\ARM_GCC_493\Debug\Node-Beaver.a(USBUART_1.o)
 .text.USBUART_1_GetConfiguration
                0x00000000       0x18 .\CortexM3\ARM_GCC_493\Debug\Node-Beaver.a(USBUART_1.o)
 .text.USBUART_1_IsConfigurationChanged
                0x00000000       0x34 .\CortexM3\ARM_GCC_493\Debug\Node-Beaver.a(USBUART_1.o)
 .text.USBUART_1_GetInterfaceSetting
                0x00000000       0x24 .\CortexM3\ARM_GCC_493\Debug\Node-Beaver.a(USBUART_1.o)
 .text.USBUART_1_GetEPState
                0x00000000       0x2c .\CortexM3\ARM_GCC_493\Debug\Node-Beaver.a(USBUART_1.o)
 .text.USBUART_1_GetEPCount
                0x00000000       0x60 .\CortexM3\ARM_GCC_493\Debug\Node-Beaver.a(USBUART_1.o)
 .text.USBUART_1_LoadInEP
                0x00000000       0xf8 .\CortexM3\ARM_GCC_493\Debug\Node-Beaver.a(USBUART_1.o)
 .text.USBUART_1_ReadOutEP
                0x00000000       0x8c .\CortexM3\ARM_GCC_493\Debug\Node-Beaver.a(USBUART_1.o)
 .text.USBUART_1_EnableOutEP
                0x00000000       0x54 .\CortexM3\ARM_GCC_493\Debug\Node-Beaver.a(USBUART_1.o)
 .text.USBUART_1_DisableOutEP
                0x00000000       0x30 .\CortexM3\ARM_GCC_493\Debug\Node-Beaver.a(USBUART_1.o)
 .text.USBUART_1_Force
                0x00000000       0x20 .\CortexM3\ARM_GCC_493\Debug\Node-Beaver.a(USBUART_1.o)
 .text.USBUART_1_GetEPAckState
                0x00000000       0x40 .\CortexM3\ARM_GCC_493\Debug\Node-Beaver.a(USBUART_1.o)
 .text.USBUART_1_SetPowerStatus
                0x00000000       0x40 .\CortexM3\ARM_GCC_493\Debug\Node-Beaver.a(USBUART_1.o)
 .text.USBUART_1_RWUEnabled
                0x00000000       0x30 .\CortexM3\ARM_GCC_493\Debug\Node-Beaver.a(USBUART_1.o)
 .text.USBUART_1_GetDeviceAddress
                0x00000000       0x20 .\CortexM3\ARM_GCC_493\Debug\Node-Beaver.a(USBUART_1.o)
 .text.USBUART_1_EnableSofInt
                0x00000000       0x18 .\CortexM3\ARM_GCC_493\Debug\Node-Beaver.a(USBUART_1.o)
 .text.USBUART_1_DisableSofInt
                0x00000000       0x18 .\CortexM3\ARM_GCC_493\Debug\Node-Beaver.a(USBUART_1.o)
 .text          0x00000000        0x0 .\CortexM3\ARM_GCC_493\Debug\Node-Beaver.a(USBUART_1_cdc.o)
 .bss           0x00000000        0x1 .\CortexM3\ARM_GCC_493\Debug\Node-Beaver.a(USBUART_1_cdc.o)
 .text.USBUART_1_CDC_Init
                0x00000000       0xa8 .\CortexM3\ARM_GCC_493\Debug\Node-Beaver.a(USBUART_1_cdc.o)
 .text.USBUART_1_PutData
                0x00000000       0x6c .\CortexM3\ARM_GCC_493\Debug\Node-Beaver.a(USBUART_1_cdc.o)
 .text.USBUART_1_StrLen
                0x00000000       0x30 .\CortexM3\ARM_GCC_493\Debug\Node-Beaver.a(USBUART_1_cdc.o)
 .text.USBUART_1_PutString
                0x00000000       0xdc .\CortexM3\ARM_GCC_493\Debug\Node-Beaver.a(USBUART_1_cdc.o)
 .text.USBUART_1_PutChar
                0x00000000       0x38 .\CortexM3\ARM_GCC_493\Debug\Node-Beaver.a(USBUART_1_cdc.o)
 .rodata        0x00000000        0x4 .\CortexM3\ARM_GCC_493\Debug\Node-Beaver.a(USBUART_1_cdc.o)
 .text.USBUART_1_PutCRLF
                0x00000000       0x38 .\CortexM3\ARM_GCC_493\Debug\Node-Beaver.a(USBUART_1_cdc.o)
 .text.USBUART_1_GetCount
                0x00000000       0x50 .\CortexM3\ARM_GCC_493\Debug\Node-Beaver.a(USBUART_1_cdc.o)
 .text.USBUART_1_DataIsReady
                0x00000000       0x24 .\CortexM3\ARM_GCC_493\Debug\Node-Beaver.a(USBUART_1_cdc.o)
 .text.USBUART_1_CDCIsReady
                0x00000000       0x24 .\CortexM3\ARM_GCC_493\Debug\Node-Beaver.a(USBUART_1_cdc.o)
 .text.USBUART_1_GetData
                0x00000000       0x3c .\CortexM3\ARM_GCC_493\Debug\Node-Beaver.a(USBUART_1_cdc.o)
 .text.USBUART_1_GetAll
                0x00000000       0x50 .\CortexM3\ARM_GCC_493\Debug\Node-Beaver.a(USBUART_1_cdc.o)
 .text.USBUART_1_GetChar
                0x00000000       0x34 .\CortexM3\ARM_GCC_493\Debug\Node-Beaver.a(USBUART_1_cdc.o)
 .text.USBUART_1_IsLineChanged
                0x00000000       0x58 .\CortexM3\ARM_GCC_493\Debug\Node-Beaver.a(USBUART_1_cdc.o)
 .text.USBUART_1_GetDTERate
                0x00000000       0x8c .\CortexM3\ARM_GCC_493\Debug\Node-Beaver.a(USBUART_1_cdc.o)
 .text.USBUART_1_GetCharFormat
                0x00000000       0x2c .\CortexM3\ARM_GCC_493\Debug\Node-Beaver.a(USBUART_1_cdc.o)
 .text.USBUART_1_GetParityType
                0x00000000       0x2c .\CortexM3\ARM_GCC_493\Debug\Node-Beaver.a(USBUART_1_cdc.o)
 .text.USBUART_1_GetDataBits
                0x00000000       0x2c .\CortexM3\ARM_GCC_493\Debug\Node-Beaver.a(USBUART_1_cdc.o)
 .text.USBUART_1_GetLineControl
                0x00000000       0x24 .\CortexM3\ARM_GCC_493\Debug\Node-Beaver.a(USBUART_1_cdc.o)
 .text.USBUART_1_SendSerialState
                0x00000000       0xa8 .\CortexM3\ARM_GCC_493\Debug\Node-Beaver.a(USBUART_1_cdc.o)
 .text.USBUART_1_GetSerialState
                0x00000000       0x24 .\CortexM3\ARM_GCC_493\Debug\Node-Beaver.a(USBUART_1_cdc.o)
 .text.USBUART_1_NotificationIsReady
                0x00000000       0x38 .\CortexM3\ARM_GCC_493\Debug\Node-Beaver.a(USBUART_1_cdc.o)
 .text.USBUART_1_SetComPort
                0x00000000       0x30 .\CortexM3\ARM_GCC_493\Debug\Node-Beaver.a(USBUART_1_cdc.o)
 .text.USBUART_1_GetComPort
                0x00000000       0x18 .\CortexM3\ARM_GCC_493\Debug\Node-Beaver.a(USBUART_1_cdc.o)
 .text          0x00000000        0x0 .\CortexM3\ARM_GCC_493\Debug\Node-Beaver.a(USBUART_1_drv.o)
 .data          0x00000000        0x0 .\CortexM3\ARM_GCC_493\Debug\Node-Beaver.a(USBUART_1_drv.o)
 .bss           0x00000000        0x0 .\CortexM3\ARM_GCC_493\Debug\Node-Beaver.a(USBUART_1_drv.o)
 .text          0x00000000        0x0 .\CortexM3\ARM_GCC_493\Debug\Node-Beaver.a(USBUART_1_episr.o)
 .data          0x00000000        0x0 .\CortexM3\ARM_GCC_493\Debug\Node-Beaver.a(USBUART_1_episr.o)
 .bss           0x00000000        0x0 .\CortexM3\ARM_GCC_493\Debug\Node-Beaver.a(USBUART_1_episr.o)
 .text          0x00000000        0x0 .\CortexM3\ARM_GCC_493\Debug\Node-Beaver.a(USBUART_1_pm.o)
 .data          0x00000000        0x0 .\CortexM3\ARM_GCC_493\Debug\Node-Beaver.a(USBUART_1_pm.o)
 .bss           0x00000000        0x4 .\CortexM3\ARM_GCC_493\Debug\Node-Beaver.a(USBUART_1_pm.o)
 .text.USBUART_1_SaveConfig
                0x00000000        0xc .\CortexM3\ARM_GCC_493\Debug\Node-Beaver.a(USBUART_1_pm.o)
 .text.USBUART_1_RestoreConfig
                0x00000000       0x1c .\CortexM3\ARM_GCC_493\Debug\Node-Beaver.a(USBUART_1_pm.o)
 .text.USBUART_1_Suspend
                0x00000000      0x11c .\CortexM3\ARM_GCC_493\Debug\Node-Beaver.a(USBUART_1_pm.o)
 .text.USBUART_1_Resume
                0x00000000      0x100 .\CortexM3\ARM_GCC_493\Debug\Node-Beaver.a(USBUART_1_pm.o)
 .text          0x00000000        0x0 .\CortexM3\ARM_GCC_493\Debug\Node-Beaver.a(USBUART_1_std.o)
 .data          0x00000000        0x0 .\CortexM3\ARM_GCC_493\Debug\Node-Beaver.a(USBUART_1_std.o)
 .text.USBUART_1_EpStateInit
                0x00000000       0x68 .\CortexM3\ARM_GCC_493\Debug\Node-Beaver.a(USBUART_1_std.o)
 .text.USBUART_1_TerminateEP
                0x00000000       0xb4 .\CortexM3\ARM_GCC_493\Debug\Node-Beaver.a(USBUART_1_std.o)
 .text          0x00000000        0x0 .\CortexM3\ARM_GCC_493\Debug\Node-Beaver.a(USBUART_1_vnd.o)
 .data          0x00000000        0x0 .\CortexM3\ARM_GCC_493\Debug\Node-Beaver.a(USBUART_1_vnd.o)
 .bss           0x00000000        0x0 .\CortexM3\ARM_GCC_493\Debug\Node-Beaver.a(USBUART_1_vnd.o)
 .text          0x00000000        0x0 .\CortexM3\ARM_GCC_493\Debug\Node-Beaver.a(USBUART_1_Dp.o)
 .data          0x00000000        0x0 .\CortexM3\ARM_GCC_493\Debug\Node-Beaver.a(USBUART_1_Dp.o)
 .bss           0x00000000        0x0 .\CortexM3\ARM_GCC_493\Debug\Node-Beaver.a(USBUART_1_Dp.o)
 .text.USBUART_1_Dp_Write
                0x00000000       0x3c .\CortexM3\ARM_GCC_493\Debug\Node-Beaver.a(USBUART_1_Dp.o)
 .text.USBUART_1_Dp_SetDriveMode
                0x00000000       0x38 .\CortexM3\ARM_GCC_493\Debug\Node-Beaver.a(USBUART_1_Dp.o)
 .text.USBUART_1_Dp_Read
                0x00000000       0x20 .\CortexM3\ARM_GCC_493\Debug\Node-Beaver.a(USBUART_1_Dp.o)
 .text.USBUART_1_Dp_ReadDataReg
                0x00000000       0x20 .\CortexM3\ARM_GCC_493\Debug\Node-Beaver.a(USBUART_1_Dp.o)
 .text.USBUART_1_Dp_SetInterruptMode
                0x00000000       0x30 .\CortexM3\ARM_GCC_493\Debug\Node-Beaver.a(USBUART_1_Dp.o)
 .text          0x00000000        0x0 .\CortexM3\ARM_GCC_493\Debug\Node-Beaver.a(power_isr.o)
 .data          0x00000000        0x0 .\CortexM3\ARM_GCC_493\Debug\Node-Beaver.a(power_isr.o)
 .bss           0x00000000        0x0 .\CortexM3\ARM_GCC_493\Debug\Node-Beaver.a(power_isr.o)
 .text.power_isr_Start
                0x00000000       0x20 .\CortexM3\ARM_GCC_493\Debug\Node-Beaver.a(power_isr.o)
 .text.power_isr_Stop
                0x00000000       0x14 .\CortexM3\ARM_GCC_493\Debug\Node-Beaver.a(power_isr.o)
 .text.power_isr_Interrupt
                0x00000000       0x20 .\CortexM3\ARM_GCC_493\Debug\Node-Beaver.a(power_isr.o)
 .text.power_isr_GetVector
                0x00000000       0x20 .\CortexM3\ARM_GCC_493\Debug\Node-Beaver.a(power_isr.o)
 .text.power_isr_GetPriority
                0x00000000       0x24 .\CortexM3\ARM_GCC_493\Debug\Node-Beaver.a(power_isr.o)
 .text.power_isr_GetState
                0x00000000       0x24 .\CortexM3\ARM_GCC_493\Debug\Node-Beaver.a(power_isr.o)
 .text.power_isr_SetPending
                0x00000000       0x18 .\CortexM3\ARM_GCC_493\Debug\Node-Beaver.a(power_isr.o)
 .text          0x00000000        0x0 .\CortexM3\ARM_GCC_493\Debug\Node-Beaver.a(rtc_i2c.o)
 .data          0x00000000        0x0 .\CortexM3\ARM_GCC_493\Debug\Node-Beaver.a(rtc_i2c.o)
 .text.rtc_i2c_Stop
                0x00000000      0x10c .\CortexM3\ARM_GCC_493\Debug\Node-Beaver.a(rtc_i2c.o)
 .text          0x00000000        0x0 .\CortexM3\ARM_GCC_493\Debug\Node-Beaver.a(rtc_i2c_INT.o)
 .data          0x00000000        0x0 .\CortexM3\ARM_GCC_493\Debug\Node-Beaver.a(rtc_i2c_INT.o)
 .bss           0x00000000        0x0 .\CortexM3\ARM_GCC_493\Debug\Node-Beaver.a(rtc_i2c_INT.o)
 .text          0x00000000        0x0 .\CortexM3\ARM_GCC_493\Debug\Node-Beaver.a(rtc_i2c_PM.o)
 .data          0x00000000        0x8 .\CortexM3\ARM_GCC_493\Debug\Node-Beaver.a(rtc_i2c_PM.o)
 .bss           0x00000000        0x0 .\CortexM3\ARM_GCC_493\Debug\Node-Beaver.a(rtc_i2c_PM.o)
 .text.rtc_i2c_SaveConfig
                0x00000000       0x58 .\CortexM3\ARM_GCC_493\Debug\Node-Beaver.a(rtc_i2c_PM.o)
 .text.rtc_i2c_Sleep
                0x00000000       0x38 .\CortexM3\ARM_GCC_493\Debug\Node-Beaver.a(rtc_i2c_PM.o)
 .text.rtc_i2c_RestoreConfig
                0x00000000       0x8c .\CortexM3\ARM_GCC_493\Debug\Node-Beaver.a(rtc_i2c_PM.o)
 .text.rtc_i2c_Wakeup
                0x00000000       0x28 .\CortexM3\ARM_GCC_493\Debug\Node-Beaver.a(rtc_i2c_PM.o)
 .text          0x00000000        0x0 .\CortexM3\ARM_GCC_493\Debug\Node-Beaver.a(rtc_i2c_MASTER.o)
 .data          0x00000000        0x0 .\CortexM3\ARM_GCC_493\Debug\Node-Beaver.a(rtc_i2c_MASTER.o)
 .bss           0x00000000        0x0 .\CortexM3\ARM_GCC_493\Debug\Node-Beaver.a(rtc_i2c_MASTER.o)
 .text.rtc_i2c_MasterWriteBuf
                0x00000000      0x10c .\CortexM3\ARM_GCC_493\Debug\Node-Beaver.a(rtc_i2c_MASTER.o)
 .text.rtc_i2c_MasterReadBuf
                0x00000000      0x110 .\CortexM3\ARM_GCC_493\Debug\Node-Beaver.a(rtc_i2c_MASTER.o)
 .text.rtc_i2c_MasterSendRestart
                0x00000000       0xa4 .\CortexM3\ARM_GCC_493\Debug\Node-Beaver.a(rtc_i2c_MASTER.o)
 .text.rtc_i2c_MasterStatus
                0x00000000       0x54 .\CortexM3\ARM_GCC_493\Debug\Node-Beaver.a(rtc_i2c_MASTER.o)
 .text.rtc_i2c_MasterClearStatus
                0x00000000       0x3c .\CortexM3\ARM_GCC_493\Debug\Node-Beaver.a(rtc_i2c_MASTER.o)
 .text.rtc_i2c_MasterGetReadBufSize
                0x00000000       0x18 .\CortexM3\ARM_GCC_493\Debug\Node-Beaver.a(rtc_i2c_MASTER.o)
 .text.rtc_i2c_MasterGetWriteBufSize
                0x00000000       0x18 .\CortexM3\ARM_GCC_493\Debug\Node-Beaver.a(rtc_i2c_MASTER.o)
 .text.rtc_i2c_MasterClearReadBuf
                0x00000000       0x44 .\CortexM3\ARM_GCC_493\Debug\Node-Beaver.a(rtc_i2c_MASTER.o)
 .text.rtc_i2c_MasterClearWriteBuf
                0x00000000       0x44 .\CortexM3\ARM_GCC_493\Debug\Node-Beaver.a(rtc_i2c_MASTER.o)
 .text          0x00000000        0x0 .\CortexM3\ARM_GCC_493\Debug\Node-Beaver.a(time_refresh_isr.o)
 .data          0x00000000        0x0 .\CortexM3\ARM_GCC_493\Debug\Node-Beaver.a(time_refresh_isr.o)
 .bss           0x00000000        0x0 .\CortexM3\ARM_GCC_493\Debug\Node-Beaver.a(time_refresh_isr.o)
 .text.time_refresh_isr_Start
                0x00000000       0x20 .\CortexM3\ARM_GCC_493\Debug\Node-Beaver.a(time_refresh_isr.o)
 .text.time_refresh_isr_Stop
                0x00000000       0x14 .\CortexM3\ARM_GCC_493\Debug\Node-Beaver.a(time_refresh_isr.o)
 .text.time_refresh_isr_Interrupt
                0x00000000        0xc .\CortexM3\ARM_GCC_493\Debug\Node-Beaver.a(time_refresh_isr.o)
 .text.time_refresh_isr_GetVector
                0x00000000       0x20 .\CortexM3\ARM_GCC_493\Debug\Node-Beaver.a(time_refresh_isr.o)
 .text.time_refresh_isr_GetPriority
                0x00000000       0x24 .\CortexM3\ARM_GCC_493\Debug\Node-Beaver.a(time_refresh_isr.o)
 .text.time_refresh_isr_GetState
                0x00000000       0x24 .\CortexM3\ARM_GCC_493\Debug\Node-Beaver.a(time_refresh_isr.o)
 .text.time_refresh_isr_SetPending
                0x00000000       0x18 .\CortexM3\ARM_GCC_493\Debug\Node-Beaver.a(time_refresh_isr.o)
 .text.time_refresh_isr_ClearPending
                0x00000000       0x18 .\CortexM3\ARM_GCC_493\Debug\Node-Beaver.a(time_refresh_isr.o)
 .text          0x00000000        0x0 .\CortexM3\ARM_GCC_493\Debug\Node-Beaver.a(millis_timer.o)
 .data          0x00000000        0x0 .\CortexM3\ARM_GCC_493\Debug\Node-Beaver.a(millis_timer.o)
 .text.millis_timer_Stop
                0x00000000       0x20 .\CortexM3\ARM_GCC_493\Debug\Node-Beaver.a(millis_timer.o)
 .text.millis_timer_SoftwareCapture
                0x00000000       0x14 .\CortexM3\ARM_GCC_493\Debug\Node-Beaver.a(millis_timer.o)
 .text.millis_timer_ReadControlRegister
                0x00000000       0x18 .\CortexM3\ARM_GCC_493\Debug\Node-Beaver.a(millis_timer.o)
 .text.millis_timer_WriteControlRegister
                0x00000000       0x20 .\CortexM3\ARM_GCC_493\Debug\Node-Beaver.a(millis_timer.o)
 .text.millis_timer_ReadPeriod
                0x00000000       0x18 .\CortexM3\ARM_GCC_493\Debug\Node-Beaver.a(millis_timer.o)
 .text          0x00000000        0x0 .\CortexM3\ARM_GCC_493\Debug\Node-Beaver.a(time_refresh_timer.o)
 .data          0x00000000        0x0 .\CortexM3\ARM_GCC_493\Debug\Node-Beaver.a(time_refresh_timer.o)
 .text.time_refresh_timer_Stop
                0x00000000       0x20 .\CortexM3\ARM_GCC_493\Debug\Node-Beaver.a(time_refresh_timer.o)
 .text.time_refresh_timer_SoftwareCapture
                0x00000000       0x14 .\CortexM3\ARM_GCC_493\Debug\Node-Beaver.a(time_refresh_timer.o)
 .text.time_refresh_timer_ReadControlRegister
                0x00000000       0x18 .\CortexM3\ARM_GCC_493\Debug\Node-Beaver.a(time_refresh_timer.o)
 .text.time_refresh_timer_WriteControlRegister
                0x00000000       0x20 .\CortexM3\ARM_GCC_493\Debug\Node-Beaver.a(time_refresh_timer.o)
 .text.time_refresh_timer_ReadPeriod
                0x00000000       0x1c .\CortexM3\ARM_GCC_493\Debug\Node-Beaver.a(time_refresh_timer.o)
 .text.time_refresh_timer_ReadCounter
                0x00000000       0x24 .\CortexM3\ARM_GCC_493\Debug\Node-Beaver.a(time_refresh_timer.o)
 .text          0x00000000        0x0 .\CortexM3\ARM_GCC_493\Debug\Node-Beaver.a(power_comp.o)
 .data          0x00000000        0x0 .\CortexM3\ARM_GCC_493\Debug\Node-Beaver.a(power_comp.o)
 .text.power_comp_Stop
                0x00000000       0x34 .\CortexM3\ARM_GCC_493\Debug\Node-Beaver.a(power_comp.o)
 .text.power_comp_GetCompare
                0x00000000       0x20 .\CortexM3\ARM_GCC_493\Debug\Node-Beaver.a(power_comp.o)
 .text.power_comp_trimAdjust
                0x00000000       0xbc .\CortexM3\ARM_GCC_493\Debug\Node-Beaver.a(power_comp.o)
 .text.power_comp_ZeroCal
                0x00000000       0xc4 .\CortexM3\ARM_GCC_493\Debug\Node-Beaver.a(power_comp.o)
 .text.power_comp_LoadTrim
                0x00000000       0x30 .\CortexM3\ARM_GCC_493\Debug\Node-Beaver.a(power_comp.o)
 .text.power_comp_PwrDwnOverrideEnable
                0x00000000       0x20 .\CortexM3\ARM_GCC_493\Debug\Node-Beaver.a(power_comp.o)
 .text.power_comp_PwrDwnOverrideDisable
                0x00000000       0x20 .\CortexM3\ARM_GCC_493\Debug\Node-Beaver.a(power_comp.o)
 .text          0x00000000        0x0 .\CortexM3\ARM_GCC_493\Debug\Node-Beaver.a(xbee_UART.o)
 .data          0x00000000        0x0 .\CortexM3\ARM_GCC_493\Debug\Node-Beaver.a(xbee_UART.o)
 .text.xbee_UART_Stop
                0x00000000       0x68 .\CortexM3\ARM_GCC_493\Debug\Node-Beaver.a(xbee_UART.o)
 .text.xbee_UART_ReadControlRegister
                0x00000000       0x10 .\CortexM3\ARM_GCC_493\Debug\Node-Beaver.a(xbee_UART.o)
 .text.xbee_UART_WriteControlRegister
                0x00000000       0x14 .\CortexM3\ARM_GCC_493\Debug\Node-Beaver.a(xbee_UART.o)
 .text.xbee_UART_SetRxInterruptMode
                0x00000000       0x20 .\CortexM3\ARM_GCC_493\Debug\Node-Beaver.a(xbee_UART.o)
 .text.xbee_UART_ReadRxData
                0x00000000       0x94 .\CortexM3\ARM_GCC_493\Debug\Node-Beaver.a(xbee_UART.o)
 .text.xbee_UART_ReadRxStatus
                0x00000000       0x40 .\CortexM3\ARM_GCC_493\Debug\Node-Beaver.a(xbee_UART.o)
 .text.xbee_UART_GetChar
                0x00000000       0xb8 .\CortexM3\ARM_GCC_493\Debug\Node-Beaver.a(xbee_UART.o)
 .text.xbee_UART_GetByte
                0x00000000       0x44 .\CortexM3\ARM_GCC_493\Debug\Node-Beaver.a(xbee_UART.o)
 .text.xbee_UART_GetRxBufferSize
                0x00000000       0x90 .\CortexM3\ARM_GCC_493\Debug\Node-Beaver.a(xbee_UART.o)
 .text.xbee_UART_ClearRxBuffer
                0x00000000       0x7c .\CortexM3\ARM_GCC_493\Debug\Node-Beaver.a(xbee_UART.o)
 .text.xbee_UART_SetRxAddressMode
                0x00000000       0x14 .\CortexM3\ARM_GCC_493\Debug\Node-Beaver.a(xbee_UART.o)
 .text.xbee_UART_SetRxAddress1
                0x00000000       0x20 .\CortexM3\ARM_GCC_493\Debug\Node-Beaver.a(xbee_UART.o)
 .text.xbee_UART_SetRxAddress2
                0x00000000       0x20 .\CortexM3\ARM_GCC_493\Debug\Node-Beaver.a(xbee_UART.o)
 .text.xbee_UART_SetTxInterruptMode
                0x00000000       0x20 .\CortexM3\ARM_GCC_493\Debug\Node-Beaver.a(xbee_UART.o)
 .text.xbee_UART_WriteTxData
                0x00000000       0x2c .\CortexM3\ARM_GCC_493\Debug\Node-Beaver.a(xbee_UART.o)
 .text.xbee_UART_ReadTxStatus
                0x00000000       0x18 .\CortexM3\ARM_GCC_493\Debug\Node-Beaver.a(xbee_UART.o)
 .text.xbee_UART_PutString
                0x00000000       0x40 .\CortexM3\ARM_GCC_493\Debug\Node-Beaver.a(xbee_UART.o)
 .text.xbee_UART_PutCRLF
                0x00000000       0x30 .\CortexM3\ARM_GCC_493\Debug\Node-Beaver.a(xbee_UART.o)
 .text.xbee_UART_GetTxBufferSize
                0x00000000       0x44 .\CortexM3\ARM_GCC_493\Debug\Node-Beaver.a(xbee_UART.o)
 .text.xbee_UART_ClearTxBuffer
                0x00000000       0x40 .\CortexM3\ARM_GCC_493\Debug\Node-Beaver.a(xbee_UART.o)
 .text.xbee_UART_SendBreak
                0x00000000       0x9c .\CortexM3\ARM_GCC_493\Debug\Node-Beaver.a(xbee_UART.o)
 .text.xbee_UART_SetTxAddressMode
                0x00000000       0x14 .\CortexM3\ARM_GCC_493\Debug\Node-Beaver.a(xbee_UART.o)
 .text          0x00000000        0x0 .\CortexM3\ARM_GCC_493\Debug\Node-Beaver.a(xbee_UART_INT.o)
 .data          0x00000000        0x0 .\CortexM3\ARM_GCC_493\Debug\Node-Beaver.a(xbee_UART_INT.o)
 .bss           0x00000000        0x0 .\CortexM3\ARM_GCC_493\Debug\Node-Beaver.a(xbee_UART_INT.o)
 .text          0x00000000        0x0 .\CortexM3\ARM_GCC_493\Debug\Node-Beaver.a(xbee_UART_IntClock.o)
 .data          0x00000000        0x0 .\CortexM3\ARM_GCC_493\Debug\Node-Beaver.a(xbee_UART_IntClock.o)
 .bss           0x00000000        0x0 .\CortexM3\ARM_GCC_493\Debug\Node-Beaver.a(xbee_UART_IntClock.o)
 .text.xbee_UART_IntClock_Stop
                0x00000000       0x34 .\CortexM3\ARM_GCC_493\Debug\Node-Beaver.a(xbee_UART_IntClock.o)
 .text.xbee_UART_IntClock_StopBlock
                0x00000000       0xb0 .\CortexM3\ARM_GCC_493\Debug\Node-Beaver.a(xbee_UART_IntClock.o)
 .text.xbee_UART_IntClock_StandbyPower
                0x00000000       0x40 .\CortexM3\ARM_GCC_493\Debug\Node-Beaver.a(xbee_UART_IntClock.o)
 .text.xbee_UART_IntClock_SetDividerRegister
                0x00000000      0x160 .\CortexM3\ARM_GCC_493\Debug\Node-Beaver.a(xbee_UART_IntClock.o)
 .text.xbee_UART_IntClock_GetDividerRegister
                0x00000000       0x18 .\CortexM3\ARM_GCC_493\Debug\Node-Beaver.a(xbee_UART_IntClock.o)
 .text.xbee_UART_IntClock_SetModeRegister
                0x00000000       0x34 .\CortexM3\ARM_GCC_493\Debug\Node-Beaver.a(xbee_UART_IntClock.o)
 .text.xbee_UART_IntClock_ClearModeRegister
                0x00000000       0x34 .\CortexM3\ARM_GCC_493\Debug\Node-Beaver.a(xbee_UART_IntClock.o)
 .text.xbee_UART_IntClock_GetModeRegister
                0x00000000       0x20 .\CortexM3\ARM_GCC_493\Debug\Node-Beaver.a(xbee_UART_IntClock.o)
 .text.xbee_UART_IntClock_SetSourceRegister
                0x00000000       0xbc .\CortexM3\ARM_GCC_493\Debug\Node-Beaver.a(xbee_UART_IntClock.o)
 .text.xbee_UART_IntClock_GetSourceRegister
                0x00000000       0x20 .\CortexM3\ARM_GCC_493\Debug\Node-Beaver.a(xbee_UART_IntClock.o)
 .text          0x00000000        0x0 .\CortexM3\ARM_GCC_493\Debug\Node-Beaver.a(sd_timer.o)
 .data          0x00000000        0x0 .\CortexM3\ARM_GCC_493\Debug\Node-Beaver.a(sd_timer.o)
 .text.sd_timer_Stop
                0x00000000       0x20 .\CortexM3\ARM_GCC_493\Debug\Node-Beaver.a(sd_timer.o)
 .text.sd_timer_SoftwareCapture
                0x00000000       0x14 .\CortexM3\ARM_GCC_493\Debug\Node-Beaver.a(sd_timer.o)
 .text.sd_timer_ReadControlRegister
                0x00000000       0x18 .\CortexM3\ARM_GCC_493\Debug\Node-Beaver.a(sd_timer.o)
 .text.sd_timer_WriteControlRegister
                0x00000000       0x20 .\CortexM3\ARM_GCC_493\Debug\Node-Beaver.a(sd_timer.o)
 .text.sd_timer_ReadPeriod
                0x00000000       0x1c .\CortexM3\ARM_GCC_493\Debug\Node-Beaver.a(sd_timer.o)
 .text.sd_timer_ReadCounter
                0x00000000       0x24 .\CortexM3\ARM_GCC_493\Debug\Node-Beaver.a(sd_timer.o)
 .text          0x00000000        0x0 .\CortexM3\ARM_GCC_493\Debug\Node-Beaver.a(sd_isr.o)
 .data          0x00000000        0x0 .\CortexM3\ARM_GCC_493\Debug\Node-Beaver.a(sd_isr.o)
 .bss           0x00000000        0x0 .\CortexM3\ARM_GCC_493\Debug\Node-Beaver.a(sd_isr.o)
 .text.sd_isr_Start
                0x00000000       0x20 .\CortexM3\ARM_GCC_493\Debug\Node-Beaver.a(sd_isr.o)
 .text.sd_isr_Stop
                0x00000000       0x14 .\CortexM3\ARM_GCC_493\Debug\Node-Beaver.a(sd_isr.o)
 .text.sd_isr_Interrupt
                0x00000000        0xc .\CortexM3\ARM_GCC_493\Debug\Node-Beaver.a(sd_isr.o)
 .text.sd_isr_GetVector
                0x00000000       0x20 .\CortexM3\ARM_GCC_493\Debug\Node-Beaver.a(sd_isr.o)
 .text.sd_isr_GetPriority
                0x00000000       0x24 .\CortexM3\ARM_GCC_493\Debug\Node-Beaver.a(sd_isr.o)
 .text.sd_isr_GetState
                0x00000000       0x24 .\CortexM3\ARM_GCC_493\Debug\Node-Beaver.a(sd_isr.o)
 .text.sd_isr_SetPending
                0x00000000       0x18 .\CortexM3\ARM_GCC_493\Debug\Node-Beaver.a(sd_isr.o)
 .text.sd_isr_ClearPending
                0x00000000       0x18 .\CortexM3\ARM_GCC_493\Debug\Node-Beaver.a(sd_isr.o)
 .text          0x00000000        0x0 .\CortexM3\ARM_GCC_493\Debug\Node-Beaver.a(watchdog_timer.o)
 .data          0x00000000        0x0 .\CortexM3\ARM_GCC_493\Debug\Node-Beaver.a(watchdog_timer.o)
 .bss           0x00000000        0x1 .\CortexM3\ARM_GCC_493\Debug\Node-Beaver.a(watchdog_timer.o)
 .text.watchdog_timer_Init
                0x00000000       0x4c .\CortexM3\ARM_GCC_493\Debug\Node-Beaver.a(watchdog_timer.o)
 .text.watchdog_timer_Enable
                0x00000000       0x20 .\CortexM3\ARM_GCC_493\Debug\Node-Beaver.a(watchdog_timer.o)
 .text.watchdog_timer_Start
                0x00000000       0x20 .\CortexM3\ARM_GCC_493\Debug\Node-Beaver.a(watchdog_timer.o)
 .text.watchdog_timer_Stop
                0x00000000       0x20 .\CortexM3\ARM_GCC_493\Debug\Node-Beaver.a(watchdog_timer.o)
 .text.watchdog_timer_SetInterruptMode
                0x00000000       0x20 .\CortexM3\ARM_GCC_493\Debug\Node-Beaver.a(watchdog_timer.o)
 .text.watchdog_timer_SoftwareCapture
                0x00000000       0x14 .\CortexM3\ARM_GCC_493\Debug\Node-Beaver.a(watchdog_timer.o)
 .text.watchdog_timer_ReadStatusRegister
                0x00000000       0x18 .\CortexM3\ARM_GCC_493\Debug\Node-Beaver.a(watchdog_timer.o)
 .text.watchdog_timer_ReadControlRegister
                0x00000000       0x18 .\CortexM3\ARM_GCC_493\Debug\Node-Beaver.a(watchdog_timer.o)
 .text.watchdog_timer_WriteControlRegister
                0x00000000       0x20 .\CortexM3\ARM_GCC_493\Debug\Node-Beaver.a(watchdog_timer.o)
 .text.watchdog_timer_ReadPeriod
                0x00000000       0x18 .\CortexM3\ARM_GCC_493\Debug\Node-Beaver.a(watchdog_timer.o)
 .text.watchdog_timer_WritePeriod
                0x00000000       0x20 .\CortexM3\ARM_GCC_493\Debug\Node-Beaver.a(watchdog_timer.o)
 .text.watchdog_timer_ReadCapture
                0x00000000       0x18 .\CortexM3\ARM_GCC_493\Debug\Node-Beaver.a(watchdog_timer.o)
 .text.watchdog_timer_WriteCounter
                0x00000000       0x20 .\CortexM3\ARM_GCC_493\Debug\Node-Beaver.a(watchdog_timer.o)
 .text.watchdog_timer_ReadCounter
                0x00000000       0x20 .\CortexM3\ARM_GCC_493\Debug\Node-Beaver.a(watchdog_timer.o)
 .text.watchdog_timer_ClearFIFO
                0x00000000       0x1c .\CortexM3\ARM_GCC_493\Debug\Node-Beaver.a(watchdog_timer.o)
 .text          0x00000000        0x0 .\CortexM3\ARM_GCC_493\Debug\Node-Beaver.a(wdt_reset_isr.o)
 .data          0x00000000        0x0 .\CortexM3\ARM_GCC_493\Debug\Node-Beaver.a(wdt_reset_isr.o)
 .bss           0x00000000        0x0 .\CortexM3\ARM_GCC_493\Debug\Node-Beaver.a(wdt_reset_isr.o)
 .text.wdt_reset_isr_Start
                0x00000000       0x20 .\CortexM3\ARM_GCC_493\Debug\Node-Beaver.a(wdt_reset_isr.o)
 .text.wdt_reset_isr_StartEx
                0x00000000       0x24 .\CortexM3\ARM_GCC_493\Debug\Node-Beaver.a(wdt_reset_isr.o)
 .text.wdt_reset_isr_Stop
                0x00000000       0x14 .\CortexM3\ARM_GCC_493\Debug\Node-Beaver.a(wdt_reset_isr.o)
 .text.wdt_reset_isr_Interrupt
                0x00000000        0xc .\CortexM3\ARM_GCC_493\Debug\Node-Beaver.a(wdt_reset_isr.o)
 .text.wdt_reset_isr_SetVector
                0x00000000       0x24 .\CortexM3\ARM_GCC_493\Debug\Node-Beaver.a(wdt_reset_isr.o)
 .text.wdt_reset_isr_GetVector
                0x00000000       0x20 .\CortexM3\ARM_GCC_493\Debug\Node-Beaver.a(wdt_reset_isr.o)
 .text.wdt_reset_isr_SetPriority
                0x00000000       0x24 .\CortexM3\ARM_GCC_493\Debug\Node-Beaver.a(wdt_reset_isr.o)
 .text.wdt_reset_isr_GetPriority
                0x00000000       0x24 .\CortexM3\ARM_GCC_493\Debug\Node-Beaver.a(wdt_reset_isr.o)
 .text.wdt_reset_isr_Enable
                0x00000000       0x18 .\CortexM3\ARM_GCC_493\Debug\Node-Beaver.a(wdt_reset_isr.o)
 .text.wdt_reset_isr_GetState
                0x00000000       0x24 .\CortexM3\ARM_GCC_493\Debug\Node-Beaver.a(wdt_reset_isr.o)
 .text.wdt_reset_isr_Disable
                0x00000000       0x18 .\CortexM3\ARM_GCC_493\Debug\Node-Beaver.a(wdt_reset_isr.o)
 .text.wdt_reset_isr_SetPending
                0x00000000       0x18 .\CortexM3\ARM_GCC_493\Debug\Node-Beaver.a(wdt_reset_isr.o)
 .text.wdt_reset_isr_ClearPending
                0x00000000       0x18 .\CortexM3\ARM_GCC_493\Debug\Node-Beaver.a(wdt_reset_isr.o)
 .text          0x00000000        0x0 .\CortexM3\ARM_GCC_493\Debug\Node-Beaver.a(car_state_isr.o)
 .data          0x00000000        0x0 .\CortexM3\ARM_GCC_493\Debug\Node-Beaver.a(car_state_isr.o)
 .bss           0x00000000        0x0 .\CortexM3\ARM_GCC_493\Debug\Node-Beaver.a(car_state_isr.o)
 .text.car_state_isr_Start
                0x00000000       0x20 .\CortexM3\ARM_GCC_493\Debug\Node-Beaver.a(car_state_isr.o)
 .text.car_state_isr_Stop
                0x00000000       0x14 .\CortexM3\ARM_GCC_493\Debug\Node-Beaver.a(car_state_isr.o)
 .text.car_state_isr_Interrupt
                0x00000000        0xc .\CortexM3\ARM_GCC_493\Debug\Node-Beaver.a(car_state_isr.o)
 .text.car_state_isr_GetVector
                0x00000000       0x20 .\CortexM3\ARM_GCC_493\Debug\Node-Beaver.a(car_state_isr.o)
 .text.car_state_isr_GetPriority
                0x00000000       0x24 .\CortexM3\ARM_GCC_493\Debug\Node-Beaver.a(car_state_isr.o)
 .text.car_state_isr_GetState
                0x00000000       0x24 .\CortexM3\ARM_GCC_493\Debug\Node-Beaver.a(car_state_isr.o)
 .text.car_state_isr_SetPending
                0x00000000       0x18 .\CortexM3\ARM_GCC_493\Debug\Node-Beaver.a(car_state_isr.o)
 .text.car_state_isr_ClearPending
                0x00000000       0x18 .\CortexM3\ARM_GCC_493\Debug\Node-Beaver.a(car_state_isr.o)
 .text          0x00000000        0x0 .\CortexM3\ARM_GCC_493\Debug\Node-Beaver.a(car_state_timer.o)
 .data          0x00000000        0x0 .\CortexM3\ARM_GCC_493\Debug\Node-Beaver.a(car_state_timer.o)
 .text.car_state_timer_Stop
                0x00000000       0x20 .\CortexM3\ARM_GCC_493\Debug\Node-Beaver.a(car_state_timer.o)
 .text.car_state_timer_SoftwareCapture
                0x00000000       0x14 .\CortexM3\ARM_GCC_493\Debug\Node-Beaver.a(car_state_timer.o)
 .text.car_state_timer_ReadControlRegister
                0x00000000       0x18 .\CortexM3\ARM_GCC_493\Debug\Node-Beaver.a(car_state_timer.o)
 .text.car_state_timer_WriteControlRegister
                0x00000000       0x20 .\CortexM3\ARM_GCC_493\Debug\Node-Beaver.a(car_state_timer.o)
 .text.car_state_timer_ReadPeriod
                0x00000000       0x18 .\CortexM3\ARM_GCC_493\Debug\Node-Beaver.a(car_state_timer.o)
 .text.car_state_timer_ReadCounter
                0x00000000       0x20 .\CortexM3\ARM_GCC_493\Debug\Node-Beaver.a(car_state_timer.o)
 .text          0x00000000        0x0 .\CortexM3\ARM_GCC_493\Debug\Node-Beaver.a(heartbeat_timer.o)
 .data          0x00000000        0x0 .\CortexM3\ARM_GCC_493\Debug\Node-Beaver.a(heartbeat_timer.o)
 .text.heartbeat_timer_Stop
                0x00000000       0x20 .\CortexM3\ARM_GCC_493\Debug\Node-Beaver.a(heartbeat_timer.o)
 .text.heartbeat_timer_SoftwareCapture
                0x00000000       0x14 .\CortexM3\ARM_GCC_493\Debug\Node-Beaver.a(heartbeat_timer.o)
 .text.heartbeat_timer_ReadControlRegister
                0x00000000       0x18 .\CortexM3\ARM_GCC_493\Debug\Node-Beaver.a(heartbeat_timer.o)
 .text.heartbeat_timer_WriteControlRegister
                0x00000000       0x20 .\CortexM3\ARM_GCC_493\Debug\Node-Beaver.a(heartbeat_timer.o)
 .text.heartbeat_timer_ReadPeriod
                0x00000000       0x18 .\CortexM3\ARM_GCC_493\Debug\Node-Beaver.a(heartbeat_timer.o)
 .text.heartbeat_timer_ReadCounter
                0x00000000       0x20 .\CortexM3\ARM_GCC_493\Debug\Node-Beaver.a(heartbeat_timer.o)
 .text          0x00000000        0x0 .\CortexM3\ARM_GCC_493\Debug\Node-Beaver.a(heartbeat_isr.o)
 .data          0x00000000        0x0 .\CortexM3\ARM_GCC_493\Debug\Node-Beaver.a(heartbeat_isr.o)
 .bss           0x00000000        0x0 .\CortexM3\ARM_GCC_493\Debug\Node-Beaver.a(heartbeat_isr.o)
 .text.heartbeat_isr_Start
                0x00000000       0x20 .\CortexM3\ARM_GCC_493\Debug\Node-Beaver.a(heartbeat_isr.o)
 .text.heartbeat_isr_Stop
                0x00000000       0x14 .\CortexM3\ARM_GCC_493\Debug\Node-Beaver.a(heartbeat_isr.o)
 .text.heartbeat_isr_Interrupt
                0x00000000        0xc .\CortexM3\ARM_GCC_493\Debug\Node-Beaver.a(heartbeat_isr.o)
 .text.heartbeat_isr_GetVector
                0x00000000       0x20 .\CortexM3\ARM_GCC_493\Debug\Node-Beaver.a(heartbeat_isr.o)
 .text.heartbeat_isr_GetPriority
                0x00000000       0x24 .\CortexM3\ARM_GCC_493\Debug\Node-Beaver.a(heartbeat_isr.o)
 .text.heartbeat_isr_GetState
                0x00000000       0x24 .\CortexM3\ARM_GCC_493\Debug\Node-Beaver.a(heartbeat_isr.o)
 .text.heartbeat_isr_SetPending
                0x00000000       0x18 .\CortexM3\ARM_GCC_493\Debug\Node-Beaver.a(heartbeat_isr.o)
 .text.heartbeat_isr_ClearPending
                0x00000000       0x18 .\CortexM3\ARM_GCC_493\Debug\Node-Beaver.a(heartbeat_isr.o)
 .data          0x00000000        0x0 .\CortexM3\ARM_GCC_493\Debug\Node-Beaver.a(CyBootAsmGnu.o)
 .bss           0x00000000        0x0 .\CortexM3\ARM_GCC_493\Debug\Node-Beaver.a(CyBootAsmGnu.o)
 .text          0x00000000        0x0 .\CortexM3\ARM_GCC_493\Debug\Node-Beaver.a(CyFlash.o)
 .data          0x00000000        0x0 .\CortexM3\ARM_GCC_493\Debug\Node-Beaver.a(CyFlash.o)
 .bss           0x00000000        0x4 .\CortexM3\ARM_GCC_493\Debug\Node-Beaver.a(CyFlash.o)
 .text.CyFlash_Start
                0x00000000       0x8c .\CortexM3\ARM_GCC_493\Debug\Node-Beaver.a(CyFlash.o)
 .text.CyFlash_Stop
                0x00000000       0x44 .\CortexM3\ARM_GCC_493\Debug\Node-Beaver.a(CyFlash.o)
 .text.CySetTempInt
                0x00000000       0x7c .\CortexM3\ARM_GCC_493\Debug\Node-Beaver.a(CyFlash.o)
 .text.CyFlashGetSpcAlgorithm
                0x00000000       0x70 .\CortexM3\ARM_GCC_493\Debug\Node-Beaver.a(CyFlash.o)
 .text.CySetTemp
                0x00000000       0x24 .\CortexM3\ARM_GCC_493\Debug\Node-Beaver.a(CyFlash.o)
 .text.CySetFlashEEBuffer
                0x00000000       0x54 .\CortexM3\ARM_GCC_493\Debug\Node-Beaver.a(CyFlash.o)
 .text.CyWriteRowData
                0x00000000       0x3c .\CortexM3\ARM_GCC_493\Debug\Node-Beaver.a(CyFlash.o)
 .text.CyWriteRowFull
                0x00000000      0x158 .\CortexM3\ARM_GCC_493\Debug\Node-Beaver.a(CyFlash.o)
 .text.CyFlash_SetWaitCycles
                0x00000000       0xbc .\CortexM3\ARM_GCC_493\Debug\Node-Beaver.a(CyFlash.o)
 .text.CyEEPROM_Start
                0x00000000       0x8c .\CortexM3\ARM_GCC_493\Debug\Node-Beaver.a(CyFlash.o)
 .text.CyEEPROM_Stop
                0x00000000       0x44 .\CortexM3\ARM_GCC_493\Debug\Node-Beaver.a(CyFlash.o)
 .text.CyEEPROM_ReadReserve
                0x00000000       0x30 .\CortexM3\ARM_GCC_493\Debug\Node-Beaver.a(CyFlash.o)
 .text.CyEEPROM_ReadRelease
                0x00000000       0x20 .\CortexM3\ARM_GCC_493\Debug\Node-Beaver.a(CyFlash.o)
 COMMON         0x00000000        0x2 .\CortexM3\ARM_GCC_493\Debug\Node-Beaver.a(CyFlash.o)
 .text          0x00000000        0x0 .\CortexM3\ARM_GCC_493\Debug\Node-Beaver.a(CySpc.o)
 .data          0x00000000        0x0 .\CortexM3\ARM_GCC_493\Debug\Node-Beaver.a(CySpc.o)
 .bss           0x00000000        0x8 .\CortexM3\ARM_GCC_493\Debug\Node-Beaver.a(CySpc.o)
 .text.CySpcStart
                0x00000000       0x44 .\CortexM3\ARM_GCC_493\Debug\Node-Beaver.a(CySpc.o)
 .text.CySpcStop
                0x00000000       0x44 .\CortexM3\ARM_GCC_493\Debug\Node-Beaver.a(CySpc.o)
 .text.CySpcReadData
                0x00000000       0x58 .\CortexM3\ARM_GCC_493\Debug\Node-Beaver.a(CySpc.o)
 .text.CySpcLoadMultiByte
                0x00000000       0xd4 .\CortexM3\ARM_GCC_493\Debug\Node-Beaver.a(CySpc.o)
 .text.CySpcLoadRow
                0x00000000       0x8c .\CortexM3\ARM_GCC_493\Debug\Node-Beaver.a(CySpc.o)
 .text.CySpcLoadRowFull
                0x00000000       0xd0 .\CortexM3\ARM_GCC_493\Debug\Node-Beaver.a(CySpc.o)
 .text.CySpcWriteRow
                0x00000000       0x98 .\CortexM3\ARM_GCC_493\Debug\Node-Beaver.a(CySpc.o)
 .text.CySpcEraseSector
                0x00000000       0x70 .\CortexM3\ARM_GCC_493\Debug\Node-Beaver.a(CySpc.o)
 .text.CySpcGetTemp
                0x00000000       0x64 .\CortexM3\ARM_GCC_493\Debug\Node-Beaver.a(CySpc.o)
 .text.CySpcLock
                0x00000000       0x68 .\CortexM3\ARM_GCC_493\Debug\Node-Beaver.a(CySpc.o)
 .text.CySpcUnlock
                0x00000000       0x50 .\CortexM3\ARM_GCC_493\Debug\Node-Beaver.a(CySpc.o)
 .text.CySpcGetAlgorithm
                0x00000000       0x48 .\CortexM3\ARM_GCC_493\Debug\Node-Beaver.a(CySpc.o)
 .text          0x00000000        0x0 .\CortexM3\ARM_GCC_493\Debug\Node-Beaver.a(cyutils.o)
 .data          0x00000000        0x0 .\CortexM3\ARM_GCC_493\Debug\Node-Beaver.a(cyutils.o)
 .bss           0x00000000        0x0 .\CortexM3\ARM_GCC_493\Debug\Node-Beaver.a(cyutils.o)
 .text          0x00000000        0x0 .\CortexM3\ARM_GCC_493\Debug\Node-Beaver.a(USBUART_1_cls.o)
 .data          0x00000000        0x0 .\CortexM3\ARM_GCC_493\Debug\Node-Beaver.a(USBUART_1_cls.o)
 .bss           0x00000000        0x0 .\CortexM3\ARM_GCC_493\Debug\Node-Beaver.a(USBUART_1_cls.o)
 .text          0x00000000        0x0 .\CortexM3\ARM_GCC_493\Debug\Node-Beaver.a(USBUART_1_descr.o)
 .data          0x00000000        0x0 .\CortexM3\ARM_GCC_493\Debug\Node-Beaver.a(USBUART_1_descr.o)
 .bss           0x00000000        0x0 .\CortexM3\ARM_GCC_493\Debug\Node-Beaver.a(USBUART_1_descr.o)
 .text          0x00000000        0x0 .\emFile_V322c\LinkLibrary\PSoC5\GCC\libemf16noslfn.a(FAT_FormatSD.o)
 .data          0x00000000        0x0 .\emFile_V322c\LinkLibrary\PSoC5\GCC\libemf16noslfn.a(FAT_FormatSD.o)
 .bss           0x00000000        0x0 .\emFile_V322c\LinkLibrary\PSoC5\GCC\libemf16noslfn.a(FAT_FormatSD.o)
 .text          0x00000000        0x0 .\emFile_V322c\LinkLibrary\PSoC5\GCC\libemf16noslfn.a(FAT_LFN.o)
 .data          0x00000000        0x0 .\emFile_V322c\LinkLibrary\PSoC5\GCC\libemf16noslfn.a(FAT_LFN.o)
 .bss           0x00000000        0x0 .\emFile_V322c\LinkLibrary\PSoC5\GCC\libemf16noslfn.a(FAT_LFN.o)
 .text.FS_FAT_DisableLFN
                0x00000000       0x10 .\emFile_V322c\LinkLibrary\PSoC5\GCC\libemf16noslfn.a(FAT_LFN.o)
 .text          0x00000000        0x0 .\emFile_V322c\LinkLibrary\PSoC5\GCC\libemf16noslfn.a(FAT_Misc.o)
 .bss           0x00000000        0x0 .\emFile_V322c\LinkLibrary\PSoC5\GCC\libemf16noslfn.a(FAT_Misc.o)
 .text.FS_FAT_GetIndexOfLastSector
                0x00000000       0x18 .\emFile_V322c\LinkLibrary\PSoC5\GCC\libemf16noslfn.a(FAT_Misc.o)
 .text.FS_FAT_AllocClusterBlock
                0x00000000       0x64 .\emFile_V322c\LinkLibrary\PSoC5\GCC\libemf16noslfn.a(FAT_Misc.o)
 .text.FS_FAT_GrowRootDir
                0x00000000       0xb0 .\emFile_V322c\LinkLibrary\PSoC5\GCC\libemf16noslfn.a(FAT_Misc.o)
 .text.FS_FAT_OpenJournalFile
                0x00000000       0x44 .\emFile_V322c\LinkLibrary\PSoC5\GCC\libemf16noslfn.a(FAT_Misc.o)
 .text.FS_FAT_CreateJournalFile
                0x00000000       0xd4 .\emFile_V322c\LinkLibrary\PSoC5\GCC\libemf16noslfn.a(FAT_Misc.o)
 .rodata.str1.1
                0x00000000        0xc .\emFile_V322c\LinkLibrary\PSoC5\GCC\libemf16noslfn.a(FAT_Misc.o)
 .text          0x00000000        0x0 .\emFile_V322c\LinkLibrary\PSoC5\GCC\libemf16noslfn.a(FAT_Open.o)
 .data          0x00000000        0x0 .\emFile_V322c\LinkLibrary\PSoC5\GCC\libemf16noslfn.a(FAT_Open.o)
 .bss           0x00000000        0x0 .\emFile_V322c\LinkLibrary\PSoC5\GCC\libemf16noslfn.a(FAT_Open.o)
 .text.FS_FAT_WriteDirEntryShort
                0x00000000       0x3c .\emFile_V322c\LinkLibrary\PSoC5\GCC\libemf16noslfn.a(FAT_Open.o)
 .text          0x00000000        0x0 .\emFile_V322c\LinkLibrary\PSoC5\GCC\libemf16noslfn.a(FAT_Write.o)
 .data          0x00000000        0x0 .\emFile_V322c\LinkLibrary\PSoC5\GCC\libemf16noslfn.a(FAT_Write.o)
 .bss           0x00000000        0x0 .\emFile_V322c\LinkLibrary\PSoC5\GCC\libemf16noslfn.a(FAT_Write.o)
 .text          0x00000000        0x0 .\emFile_V322c\LinkLibrary\PSoC5\GCC\libemf16noslfn.a(FS_Attrib.o)
 .data          0x00000000        0x0 .\emFile_V322c\LinkLibrary\PSoC5\GCC\libemf16noslfn.a(FS_Attrib.o)
 .bss           0x00000000        0x0 .\emFile_V322c\LinkLibrary\PSoC5\GCC\libemf16noslfn.a(FS_Attrib.o)
 .text.FS__SetFileAttributes
                0x00000000       0x30 .\emFile_V322c\LinkLibrary\PSoC5\GCC\libemf16noslfn.a(FS_Attrib.o)
 .text.FS_SetFileAttributes
                0x00000000        0x4 .\emFile_V322c\LinkLibrary\PSoC5\GCC\libemf16noslfn.a(FS_Attrib.o)
 .text          0x00000000        0x0 .\emFile_V322c\LinkLibrary\PSoC5\GCC\libemf16noslfn.a(FS_CLib.o)
 .data          0x00000000        0x0 .\emFile_V322c\LinkLibrary\PSoC5\GCC\libemf16noslfn.a(FS_CLib.o)
 .bss           0x00000000        0x0 .\emFile_V322c\LinkLibrary\PSoC5\GCC\libemf16noslfn.a(FS_CLib.o)
 .text.FS__CLIB_strncat
                0x00000000       0x2e .\emFile_V322c\LinkLibrary\PSoC5\GCC\libemf16noslfn.a(FS_CLib.o)
 .text.FS__CLIB_strcat
                0x00000000       0x20 .\emFile_V322c\LinkLibrary\PSoC5\GCC\libemf16noslfn.a(FS_CLib.o)
 .text.FS__CLIB_strcpy
                0x00000000       0x1c .\emFile_V322c\LinkLibrary\PSoC5\GCC\libemf16noslfn.a(FS_CLib.o)
 .text.FS__CLIB_atoi
                0x00000000       0x9c .\emFile_V322c\LinkLibrary\PSoC5\GCC\libemf16noslfn.a(FS_CLib.o)
 .text          0x00000000        0x0 .\emFile_V322c\LinkLibrary\PSoC5\GCC\libemf16noslfn.a(FS_Core.o)
 .data          0x00000000        0x0 .\emFile_V322c\LinkLibrary\PSoC5\GCC\libemf16noslfn.a(FS_Core.o)
 .text.FS_SetMemAccessCallback
                0x00000000        0x2 .\emFile_V322c\LinkLibrary\PSoC5\GCC\libemf16noslfn.a(FS_Core.o)
 .text.FS_LoadU16BE
                0x00000000        0xa .\emFile_V322c\LinkLibrary\PSoC5\GCC\libemf16noslfn.a(FS_Core.o)
 .text.FS_StoreU16BE
                0x00000000        0x8 .\emFile_V322c\LinkLibrary\PSoC5\GCC\libemf16noslfn.a(FS_Core.o)
 .text.FS_StoreU32BE
                0x00000000       0x14 .\emFile_V322c\LinkLibrary\PSoC5\GCC\libemf16noslfn.a(FS_Core.o)
 .text.FS_StoreU24LE
                0x00000000       0x10 .\emFile_V322c\LinkLibrary\PSoC5\GCC\libemf16noslfn.a(FS_Core.o)
 .text.FS_SetMaxSectorSize
                0x00000000       0x18 .\emFile_V322c\LinkLibrary\PSoC5\GCC\libemf16noslfn.a(FS_Core.o)
 .text.FS_SetMemHandler
                0x00000000        0x2 .\emFile_V322c\LinkLibrary\PSoC5\GCC\libemf16noslfn.a(FS_Core.o)
 .text.FS_GetMaxSectorSize
                0x00000000        0xc .\emFile_V322c\LinkLibrary\PSoC5\GCC\libemf16noslfn.a(FS_Core.o)
 .text.FS_BITFIELD_CalcNumBitsUsed
                0x00000000        0xc .\emFile_V322c\LinkLibrary\PSoC5\GCC\libemf16noslfn.a(FS_Core.o)
 .text.FS_BITFIELD_ReadEntry
                0x00000000       0x3e .\emFile_V322c\LinkLibrary\PSoC5\GCC\libemf16noslfn.a(FS_Core.o)
 .text.FS_BITFIELD_WriteEntry
                0x00000000       0x38 .\emFile_V322c\LinkLibrary\PSoC5\GCC\libemf16noslfn.a(FS_Core.o)
 .text.FS_BITFIELD_CalcSize
                0x00000000        0x8 .\emFile_V322c\LinkLibrary\PSoC5\GCC\libemf16noslfn.a(FS_Core.o)
 .text.FS_AllocZeroedPtr
                0x00000000       0x1e .\emFile_V322c\LinkLibrary\PSoC5\GCC\libemf16noslfn.a(FS_Core.o)
 .text.FS_STORAGE_DeInit
                0x00000000       0x20 .\emFile_V322c\LinkLibrary\PSoC5\GCC\libemf16noslfn.a(FS_Core.o)
 .text.FS_DeInit
                0x00000000       0x54 .\emFile_V322c\LinkLibrary\PSoC5\GCC\libemf16noslfn.a(FS_Core.o)
 .text.FS_SetBusyLEDCallback
                0x00000000       0x12 .\emFile_V322c\LinkLibrary\PSoC5\GCC\libemf16noslfn.a(FS_Core.o)
 .text          0x00000000        0x0 .\emFile_V322c\LinkLibrary\PSoC5\GCC\libemf16noslfn.a(FS_Dir.o)
 .data          0x00000000        0x0 .\emFile_V322c\LinkLibrary\PSoC5\GCC\libemf16noslfn.a(FS_Dir.o)
 .bss           0x00000000        0x0 .\emFile_V322c\LinkLibrary\PSoC5\GCC\libemf16noslfn.a(FS_Dir.o)
 .text.FS__FindClose
                0x00000000        0x6 .\emFile_V322c\LinkLibrary\PSoC5\GCC\libemf16noslfn.a(FS_Dir.o)
 .text.FS_FindClose
                0x00000000        0x4 .\emFile_V322c\LinkLibrary\PSoC5\GCC\libemf16noslfn.a(FS_Dir.o)
 .text.FS__FindNextFile
                0x00000000       0x52 .\emFile_V322c\LinkLibrary\PSoC5\GCC\libemf16noslfn.a(FS_Dir.o)
 .text.FS_FindNextFile
                0x00000000        0xa .\emFile_V322c\LinkLibrary\PSoC5\GCC\libemf16noslfn.a(FS_Dir.o)
 .text.FS__FindFirstFileEx
                0x00000000       0x86 .\emFile_V322c\LinkLibrary\PSoC5\GCC\libemf16noslfn.a(FS_Dir.o)
 .text.FS__FindFirstFile
                0x00000000       0x2e .\emFile_V322c\LinkLibrary\PSoC5\GCC\libemf16noslfn.a(FS_Dir.o)
 .text.FS_FindFirstFile
                0x00000000        0xa .\emFile_V322c\LinkLibrary\PSoC5\GCC\libemf16noslfn.a(FS_Dir.o)
 .text.FS__RmDir
                0x00000000       0x58 .\emFile_V322c\LinkLibrary\PSoC5\GCC\libemf16noslfn.a(FS_Dir.o)
 .text.FS_RmDir
                0x00000000        0x4 .\emFile_V322c\LinkLibrary\PSoC5\GCC\libemf16noslfn.a(FS_Dir.o)
 .text          0x00000000        0x0 .\emFile_V322c\LinkLibrary\PSoC5\GCC\libemf16noslfn.a(FS_LogBlock.o)
 .data          0x00000000        0x0 .\emFile_V322c\LinkLibrary\PSoC5\GCC\libemf16noslfn.a(FS_LogBlock.o)
 .bss           0x00000000        0x0 .\emFile_V322c\LinkLibrary\PSoC5\GCC\libemf16noslfn.a(FS_LogBlock.o)
 .text.FS_LB_FreePartSectors
                0x00000000       0x16 .\emFile_V322c\LinkLibrary\PSoC5\GCC\libemf16noslfn.a(FS_LogBlock.o)
 .text          0x00000000        0x0 .\emFile_V322c\LinkLibrary\PSoC5\GCC\libemf16noslfn.a(FS_memcpy.o)
 .data          0x00000000        0x0 .\emFile_V322c\LinkLibrary\PSoC5\GCC\libemf16noslfn.a(FS_memcpy.o)
 .bss           0x00000000        0x0 .\emFile_V322c\LinkLibrary\PSoC5\GCC\libemf16noslfn.a(FS_memcpy.o)
 .text          0x00000000        0x0 .\emFile_V322c\LinkLibrary\PSoC5\GCC\libemf16noslfn.a(FS_Misc.o)
 .data          0x00000000        0x0 .\emFile_V322c\LinkLibrary\PSoC5\GCC\libemf16noslfn.a(FS_Misc.o)
 .bss           0x00000000        0x0 .\emFile_V322c\LinkLibrary\PSoC5\GCC\libemf16noslfn.a(FS_Misc.o)
 .text._CalcSizeInKB
                0x00000000       0x14 .\emFile_V322c\LinkLibrary\PSoC5\GCC\libemf16noslfn.a(FS_Misc.o)
 .text.FS__GetFileObj
                0x00000000        0x4 .\emFile_V322c\LinkLibrary\PSoC5\GCC\libemf16noslfn.a(FS_Misc.o)
 .text.FS__FTell
                0x00000000        0xa .\emFile_V322c\LinkLibrary\PSoC5\GCC\libemf16noslfn.a(FS_Misc.o)
 .text.FS__FSeek
                0x00000000       0x42 .\emFile_V322c\LinkLibrary\PSoC5\GCC\libemf16noslfn.a(FS_Misc.o)
 .text.FS__CalcSizeInBytes
                0x00000000       0x20 .\emFile_V322c\LinkLibrary\PSoC5\GCC\libemf16noslfn.a(FS_Misc.o)
 .text.FS__CalcSizeInKB
                0x00000000        0x4 .\emFile_V322c\LinkLibrary\PSoC5\GCC\libemf16noslfn.a(FS_Misc.o)
 .text.FS_FSeek
                0x00000000        0x4 .\emFile_V322c\LinkLibrary\PSoC5\GCC\libemf16noslfn.a(FS_Misc.o)
 .text.FS_FTell
                0x00000000        0x4 .\emFile_V322c\LinkLibrary\PSoC5\GCC\libemf16noslfn.a(FS_Misc.o)
 .text.FS_FEof  0x00000000       0x20 .\emFile_V322c\LinkLibrary\PSoC5\GCC\libemf16noslfn.a(FS_Misc.o)
 .text.FS_FError
                0x00000000        0xe .\emFile_V322c\LinkLibrary\PSoC5\GCC\libemf16noslfn.a(FS_Misc.o)
 .text.FS_ClearErr
                0x00000000        0xa .\emFile_V322c\LinkLibrary\PSoC5\GCC\libemf16noslfn.a(FS_Misc.o)
 .text.FS_ConfigUpdateDirOnWrite
                0x00000000       0x14 .\emFile_V322c\LinkLibrary\PSoC5\GCC\libemf16noslfn.a(FS_Misc.o)
 .text.FS__RemoveDevices
                0x00000000       0x60 .\emFile_V322c\LinkLibrary\PSoC5\GCC\libemf16noslfn.a(FS_Misc.o)
 .text.FS__RemoveDevice
                0x00000000       0x9c .\emFile_V322c\LinkLibrary\PSoC5\GCC\libemf16noslfn.a(FS_Misc.o)
 .text.FS_RemoveDevice
                0x00000000       0x14 .\emFile_V322c\LinkLibrary\PSoC5\GCC\libemf16noslfn.a(FS_Misc.o)
 .text          0x00000000        0x0 .\emFile_V322c\LinkLibrary\PSoC5\GCC\libemf16noslfn.a(FS_Read.o)
 .data          0x00000000        0x0 .\emFile_V322c\LinkLibrary\PSoC5\GCC\libemf16noslfn.a(FS_Read.o)
 .bss           0x00000000        0x0 .\emFile_V322c\LinkLibrary\PSoC5\GCC\libemf16noslfn.a(FS_Read.o)
 .text          0x00000000        0x0 .\emFile_V322c\LinkLibrary\PSoC5\GCC\libemf16noslfn.a(FS_Storage.o)
 .data          0x00000000        0x0 .\emFile_V322c\LinkLibrary\PSoC5\GCC\libemf16noslfn.a(FS_Storage.o)
 .bss           0x00000000        0x0 .\emFile_V322c\LinkLibrary\PSoC5\GCC\libemf16noslfn.a(FS_Storage.o)
 .text.FS__GetNumVolumes
                0x00000000        0xc .\emFile_V322c\LinkLibrary\PSoC5\GCC\libemf16noslfn.a(FS_Storage.o)
 .text.FS_AddPhysDevice
                0x00000000        0x4 .\emFile_V322c\LinkLibrary\PSoC5\GCC\libemf16noslfn.a(FS_Storage.o)
 .text.FS_STORAGE_ResetCounters
                0x00000000        0x2 .\emFile_V322c\LinkLibrary\PSoC5\GCC\libemf16noslfn.a(FS_Storage.o)
 .text.FS_STORAGE_GetCounters
                0x00000000        0x8 .\emFile_V322c\LinkLibrary\PSoC5\GCC\libemf16noslfn.a(FS_Storage.o)
 .text.FS_GetVolumeName
                0x00000000       0x60 .\emFile_V322c\LinkLibrary\PSoC5\GCC\libemf16noslfn.a(FS_Storage.o)
 .text.FS_FindVolume
                0x00000000       0x58 .\emFile_V322c\LinkLibrary\PSoC5\GCC\libemf16noslfn.a(FS_Storage.o)
 .text.FS_SetOnDeviceActivityHook
                0x00000000       0x10 .\emFile_V322c\LinkLibrary\PSoC5\GCC\libemf16noslfn.a(FS_Storage.o)
 .text.FS__GetVolumeStatus
                0x00000000       0x18 .\emFile_V322c\LinkLibrary\PSoC5\GCC\libemf16noslfn.a(FS_Storage.o)
 .text.FS_GetVolumeStatus
                0x00000000       0x10 .\emFile_V322c\LinkLibrary\PSoC5\GCC\libemf16noslfn.a(FS_Storage.o)
 .text.FS__GetDeviceInfo
                0x00000000       0x28 .\emFile_V322c\LinkLibrary\PSoC5\GCC\libemf16noslfn.a(FS_Storage.o)
 .text.FS_STORAGE_GetDeviceInfo
                0x00000000       0x14 .\emFile_V322c\LinkLibrary\PSoC5\GCC\libemf16noslfn.a(FS_Storage.o)
 .text.FS__ReadSectors
                0x00000000       0x26 .\emFile_V322c\LinkLibrary\PSoC5\GCC\libemf16noslfn.a(FS_Storage.o)
 .text.FS_STORAGE_ReadSectors
                0x00000000       0x1c .\emFile_V322c\LinkLibrary\PSoC5\GCC\libemf16noslfn.a(FS_Storage.o)
 .text.FS__WriteSectors
                0x00000000       0x26 .\emFile_V322c\LinkLibrary\PSoC5\GCC\libemf16noslfn.a(FS_Storage.o)
 .text.FS_STORAGE_WriteSectors
                0x00000000       0x1c .\emFile_V322c\LinkLibrary\PSoC5\GCC\libemf16noslfn.a(FS_Storage.o)
 .text.FS__ReadSector
                0x00000000       0x22 .\emFile_V322c\LinkLibrary\PSoC5\GCC\libemf16noslfn.a(FS_Storage.o)
 .text.FS_STORAGE_ReadSector
                0x00000000       0x18 .\emFile_V322c\LinkLibrary\PSoC5\GCC\libemf16noslfn.a(FS_Storage.o)
 .text.FS__WriteSector
                0x00000000       0x22 .\emFile_V322c\LinkLibrary\PSoC5\GCC\libemf16noslfn.a(FS_Storage.o)
 .text.FS_STORAGE_WriteSector
                0x00000000       0x18 .\emFile_V322c\LinkLibrary\PSoC5\GCC\libemf16noslfn.a(FS_Storage.o)
 .text.FS__UnmountForcedLL
                0x00000000       0x22 .\emFile_V322c\LinkLibrary\PSoC5\GCC\libemf16noslfn.a(FS_Storage.o)
 .text.FS_STORAGE_UnmountForced
                0x00000000       0x14 .\emFile_V322c\LinkLibrary\PSoC5\GCC\libemf16noslfn.a(FS_Storage.o)
 .text.FS__UnmountLL
                0x00000000       0x22 .\emFile_V322c\LinkLibrary\PSoC5\GCC\libemf16noslfn.a(FS_Storage.o)
 .text.FS_STORAGE_Unmount
                0x00000000       0x14 .\emFile_V322c\LinkLibrary\PSoC5\GCC\libemf16noslfn.a(FS_Storage.o)
 .text.FS_IoCtl
                0x00000000       0x1a .\emFile_V322c\LinkLibrary\PSoC5\GCC\libemf16noslfn.a(FS_Storage.o)
 .text.FS_STORAGE_Sync
                0x00000000       0x10 .\emFile_V322c\LinkLibrary\PSoC5\GCC\libemf16noslfn.a(FS_Storage.o)
 .text.FS__IsLLFormatted
                0x00000000       0x20 .\emFile_V322c\LinkLibrary\PSoC5\GCC\libemf16noslfn.a(FS_Storage.o)
 .text.FS_IsLLFormatted
                0x00000000       0x16 .\emFile_V322c\LinkLibrary\PSoC5\GCC\libemf16noslfn.a(FS_Storage.o)
 .text.FS__FormatLow
                0x00000000       0x1a .\emFile_V322c\LinkLibrary\PSoC5\GCC\libemf16noslfn.a(FS_Storage.o)
 .text.FS_FormatLow
                0x00000000       0x16 .\emFile_V322c\LinkLibrary\PSoC5\GCC\libemf16noslfn.a(FS_Storage.o)
 .text.FS_FormatLLIfRequired
                0x00000000       0x16 .\emFile_V322c\LinkLibrary\PSoC5\GCC\libemf16noslfn.a(FS_Storage.o)
 COMMON         0x00000000       0x14 .\emFile_V322c\LinkLibrary\PSoC5\GCC\libemf16noslfn.a(FS_Storage.o)
 .text          0x00000000        0x0 .\emFile_V322c\LinkLibrary\PSoC5\GCC\libemf16noslfn.a(FS_Time.o)
 .data          0x00000000        0x0 .\emFile_V322c\LinkLibrary\PSoC5\GCC\libemf16noslfn.a(FS_Time.o)
 .bss           0x00000000        0x0 .\emFile_V322c\LinkLibrary\PSoC5\GCC\libemf16noslfn.a(FS_Time.o)
 .text.FS_TimeStampToFileTime
                0x00000000       0x36 .\emFile_V322c\LinkLibrary\PSoC5\GCC\libemf16noslfn.a(FS_Time.o)
 .text.FS_SetFileTimeEx
                0x00000000        0x4 .\emFile_V322c\LinkLibrary\PSoC5\GCC\libemf16noslfn.a(FS_Time.o)
 .text.FS__GetFileTimeEx
                0x00000000       0x42 .\emFile_V322c\LinkLibrary\PSoC5\GCC\libemf16noslfn.a(FS_Time.o)
 .text.FS_GetFileTime
                0x00000000        0x6 .\emFile_V322c\LinkLibrary\PSoC5\GCC\libemf16noslfn.a(FS_Time.o)
 .text.FS_GetFileTimeEx
                0x00000000        0x4 .\emFile_V322c\LinkLibrary\PSoC5\GCC\libemf16noslfn.a(FS_Time.o)
 .text          0x00000000        0x0 .\emFile_V322c\LinkLibrary\PSoC5\GCC\libemf16noslfn.a(FS_Unmount.o)
 .data          0x00000000        0x0 .\emFile_V322c\LinkLibrary\PSoC5\GCC\libemf16noslfn.a(FS_Unmount.o)
 .bss           0x00000000        0x0 .\emFile_V322c\LinkLibrary\PSoC5\GCC\libemf16noslfn.a(FS_Unmount.o)
 .text.FS_UnmountForced
                0x00000000       0x14 .\emFile_V322c\LinkLibrary\PSoC5\GCC\libemf16noslfn.a(FS_Unmount.o)
 .text.FS__UnmountNL
                0x00000000       0x4c .\emFile_V322c\LinkLibrary\PSoC5\GCC\libemf16noslfn.a(FS_Unmount.o)
 .text          0x00000000        0x0 .\emFile_V322c\LinkLibrary\PSoC5\GCC\libemf16noslfn.a(FS_Volume.o)
 .data          0x00000000        0x0 .\emFile_V322c\LinkLibrary\PSoC5\GCC\libemf16noslfn.a(FS_Volume.o)
 .bss           0x00000000        0x0 .\emFile_V322c\LinkLibrary\PSoC5\GCC\libemf16noslfn.a(FS_Volume.o)
 .text.FS_SetAutoMount
                0x00000000       0x12 .\emFile_V322c\LinkLibrary\PSoC5\GCC\libemf16noslfn.a(FS_Volume.o)
 .text.FS_IsVolumeMounted
                0x00000000       0x18 .\emFile_V322c\LinkLibrary\PSoC5\GCC\libemf16noslfn.a(FS_Volume.o)
 .text.FS__AutoMountNL
                0x00000000       0x14 .\emFile_V322c\LinkLibrary\PSoC5\GCC\libemf16noslfn.a(FS_Volume.o)
 .text._GetVolumeInfoEx
                0x00000000       0x30 .\emFile_V322c\LinkLibrary\PSoC5\GCC\libemf16noslfn.a(FS_Volume.o)
 .text.FS_CheckDisk
                0x00000000       0x50 .\emFile_V322c\LinkLibrary\PSoC5\GCC\libemf16noslfn.a(FS_Volume.o)
 .text.FS__GetVolumeInfoEx
                0x00000000       0x24 .\emFile_V322c\LinkLibrary\PSoC5\GCC\libemf16noslfn.a(FS_Volume.o)
 .text.FS_GetVolumeSizeKB
                0x00000000       0x28 .\emFile_V322c\LinkLibrary\PSoC5\GCC\libemf16noslfn.a(FS_Volume.o)
 .text.FS_GetVolumeSize
                0x00000000       0x28 .\emFile_V322c\LinkLibrary\PSoC5\GCC\libemf16noslfn.a(FS_Volume.o)
 .text.FS__GetVolumeInfo
                0x00000000        0x6 .\emFile_V322c\LinkLibrary\PSoC5\GCC\libemf16noslfn.a(FS_Volume.o)
 .text.FS_GetVolumeFreeSpaceKB
                0x00000000       0x26 .\emFile_V322c\LinkLibrary\PSoC5\GCC\libemf16noslfn.a(FS_Volume.o)
 .text.FS_GetVolumeFreeSpace
                0x00000000       0x26 .\emFile_V322c\LinkLibrary\PSoC5\GCC\libemf16noslfn.a(FS_Volume.o)
 .text.FS_GetVolumeInfo
                0x00000000        0x4 .\emFile_V322c\LinkLibrary\PSoC5\GCC\libemf16noslfn.a(FS_Volume.o)
 .text.FS_IsHLFormatted
                0x00000000       0x1a .\emFile_V322c\LinkLibrary\PSoC5\GCC\libemf16noslfn.a(FS_Volume.o)
 .text.FS_SetVolumeLabel
                0x00000000       0x2a .\emFile_V322c\LinkLibrary\PSoC5\GCC\libemf16noslfn.a(FS_Volume.o)
 .text.FS_GetVolumeLabel
                0x00000000       0x32 .\emFile_V322c\LinkLibrary\PSoC5\GCC\libemf16noslfn.a(FS_Volume.o)
 .text.FS__MountNL
                0x00000000       0x20 .\emFile_V322c\LinkLibrary\PSoC5\GCC\libemf16noslfn.a(FS_Volume.o)
 .text.FS__Mount
                0x00000000        0x4 .\emFile_V322c\LinkLibrary\PSoC5\GCC\libemf16noslfn.a(FS_Volume.o)
 .text.FS_MountEx
                0x00000000       0x1a .\emFile_V322c\LinkLibrary\PSoC5\GCC\libemf16noslfn.a(FS_Volume.o)
 .text.FS_Mount
                0x00000000       0x18 .\emFile_V322c\LinkLibrary\PSoC5\GCC\libemf16noslfn.a(FS_Volume.o)
 .text          0x00000000        0x0 .\emFile_V322c\LinkLibrary\PSoC5\GCC\libemf16noslfn.a(FS_Write.o)
 .data          0x00000000        0x0 .\emFile_V322c\LinkLibrary\PSoC5\GCC\libemf16noslfn.a(FS_Write.o)
 .bss           0x00000000        0x0 .\emFile_V322c\LinkLibrary\PSoC5\GCC\libemf16noslfn.a(FS_Write.o)
 .text          0x00000000        0x0 .\emFile_V322c\LinkLibrary\PSoC5\GCC\libemf16noslfn.a(FAT_CheckDisk.o)
 .data          0x00000000        0x0 .\emFile_V322c\LinkLibrary\PSoC5\GCC\libemf16noslfn.a(FAT_CheckDisk.o)
 .bss           0x00000000       0x10 .\emFile_V322c\LinkLibrary\PSoC5\GCC\libemf16noslfn.a(FAT_CheckDisk.o)
 .text.FS_FAT_AbortCheckDisk
                0x00000000        0xc .\emFile_V322c\LinkLibrary\PSoC5\GCC\libemf16noslfn.a(FAT_CheckDisk.o)
 .text._IsClusterEOC
                0x00000000       0x42 .\emFile_V322c\LinkLibrary\PSoC5\GCC\libemf16noslfn.a(FAT_CheckDisk.o)
 .text._CheckName
                0x00000000       0x32 .\emFile_V322c\LinkLibrary\PSoC5\GCC\libemf16noslfn.a(FAT_CheckDisk.o)
 .text._IsDotFolderEntryValid
                0x00000000       0x2c .\emFile_V322c\LinkLibrary\PSoC5\GCC\libemf16noslfn.a(FAT_CheckDisk.o)
 .text._CreateDirName
                0x00000000       0x58 .\emFile_V322c\LinkLibrary\PSoC5\GCC\libemf16noslfn.a(FAT_CheckDisk.o)
 .text._CreateFileName
                0x00000000       0x6c .\emFile_V322c\LinkLibrary\PSoC5\GCC\libemf16noslfn.a(FAT_CheckDisk.o)
 .text._SetFileLen
                0x00000000       0x2e .\emFile_V322c\LinkLibrary\PSoC5\GCC\libemf16noslfn.a(FAT_CheckDisk.o)
 .text._CheckFile
                0x00000000      0x21e .\emFile_V322c\LinkLibrary\PSoC5\GCC\libemf16noslfn.a(FAT_CheckDisk.o)
 .text._CheckDir
                0x00000000      0x374 .\emFile_V322c\LinkLibrary\PSoC5\GCC\libemf16noslfn.a(FAT_CheckDisk.o)
 .text.FS_FAT__CheckDisk
                0x00000000      0x388 .\emFile_V322c\LinkLibrary\PSoC5\GCC\libemf16noslfn.a(FAT_CheckDisk.o)
 .rodata.str1.1
                0x00000000       0x29 .\emFile_V322c\LinkLibrary\PSoC5\GCC\libemf16noslfn.a(FAT_CheckDisk.o)
 .text          0x00000000        0x0 .\emFile_V322c\LinkLibrary\PSoC5\GCC\libemf16noslfn.a(FAT_Dir.o)
 .data          0x00000000        0x0 .\emFile_V322c\LinkLibrary\PSoC5\GCC\libemf16noslfn.a(FAT_Dir.o)
 .bss           0x00000000        0x0 .\emFile_V322c\LinkLibrary\PSoC5\GCC\libemf16noslfn.a(FAT_Dir.o)
 .text.FS_FAT_CloseDir
                0x00000000        0xc .\emFile_V322c\LinkLibrary\PSoC5\GCC\libemf16noslfn.a(FAT_Dir.o)
 .text.FS_FAT_ReadDir
                0x00000000       0x38 .\emFile_V322c\LinkLibrary\PSoC5\GCC\libemf16noslfn.a(FAT_Dir.o)
 .text.FS_FAT_RemoveDir
                0x00000000       0x88 .\emFile_V322c\LinkLibrary\PSoC5\GCC\libemf16noslfn.a(FAT_Dir.o)
 .text.FS_FAT_OpenDir
                0x00000000       0x72 .\emFile_V322c\LinkLibrary\PSoC5\GCC\libemf16noslfn.a(FAT_Dir.o)
 .text          0x00000000        0x0 .\emFile_V322c\LinkLibrary\PSoC5\GCC\libemf16noslfn.a(FAT_DirEntry.o)
 .data          0x00000000        0x0 .\emFile_V322c\LinkLibrary\PSoC5\GCC\libemf16noslfn.a(FAT_DirEntry.o)
 .bss           0x00000000        0x0 .\emFile_V322c\LinkLibrary\PSoC5\GCC\libemf16noslfn.a(FAT_DirEntry.o)
 .text          0x00000000        0x0 .\emFile_V322c\LinkLibrary\PSoC5\GCC\libemf16noslfn.a(FAT_DiskInfo.o)
 .data          0x00000000        0x0 .\emFile_V322c\LinkLibrary\PSoC5\GCC\libemf16noslfn.a(FAT_DiskInfo.o)
 .bss           0x00000000        0x0 .\emFile_V322c\LinkLibrary\PSoC5\GCC\libemf16noslfn.a(FAT_DiskInfo.o)
 .text.FS_FAT_GetDiskSpace
                0x00000000        0xe .\emFile_V322c\LinkLibrary\PSoC5\GCC\libemf16noslfn.a(FAT_DiskInfo.o)
 .text.FS_FAT_GetDiskInfo
                0x00000000       0x84 .\emFile_V322c\LinkLibrary\PSoC5\GCC\libemf16noslfn.a(FAT_DiskInfo.o)
 .text          0x00000000        0x0 .\emFile_V322c\LinkLibrary\PSoC5\GCC\libemf16noslfn.a(FAT_Format.o)
 .data          0x00000000        0x0 .\emFile_V322c\LinkLibrary\PSoC5\GCC\libemf16noslfn.a(FAT_Format.o)
 .bss           0x00000000        0x0 .\emFile_V322c\LinkLibrary\PSoC5\GCC\libemf16noslfn.a(FAT_Format.o)
 .text.FS_FAT_Format
                0x00000000       0x74 .\emFile_V322c\LinkLibrary\PSoC5\GCC\libemf16noslfn.a(FAT_Format.o)
 .text          0x00000000        0x0 .\emFile_V322c\LinkLibrary\PSoC5\GCC\libemf16noslfn.a(FAT_Read.o)
 .data          0x00000000        0x0 .\emFile_V322c\LinkLibrary\PSoC5\GCC\libemf16noslfn.a(FAT_Read.o)
 .bss           0x00000000        0x0 .\emFile_V322c\LinkLibrary\PSoC5\GCC\libemf16noslfn.a(FAT_Read.o)
 .text          0x00000000        0x0 .\emFile_V322c\LinkLibrary\PSoC5\GCC\libemf16noslfn.a(FAT_VolumeLabel.o)
 .data          0x00000000        0x0 .\emFile_V322c\LinkLibrary\PSoC5\GCC\libemf16noslfn.a(FAT_VolumeLabel.o)
 .bss           0x00000000        0x0 .\emFile_V322c\LinkLibrary\PSoC5\GCC\libemf16noslfn.a(FAT_VolumeLabel.o)
 .text._FindVolumeDirEntry
                0x00000000       0x3e .\emFile_V322c\LinkLibrary\PSoC5\GCC\libemf16noslfn.a(FAT_VolumeLabel.o)
 .text.FS_FAT_SetVolumeLabel
                0x00000000       0xd6 .\emFile_V322c\LinkLibrary\PSoC5\GCC\libemf16noslfn.a(FAT_VolumeLabel.o)
 .text.FS_FAT_GetVolumeLabel
                0x00000000       0x5c .\emFile_V322c\LinkLibrary\PSoC5\GCC\libemf16noslfn.a(FAT_VolumeLabel.o)
 .text          0x00000000        0x0 .\emFile_V322c\LinkLibrary\PSoC5\GCC\libemf16noslfn.a(FS_Partition.o)
 .data          0x00000000        0x0 .\emFile_V322c\LinkLibrary\PSoC5\GCC\libemf16noslfn.a(FS_Partition.o)
 .bss           0x00000000        0x0 .\emFile_V322c\LinkLibrary\PSoC5\GCC\libemf16noslfn.a(FS_Partition.o)
 .text.FS__GetMediaStartSec
                0x00000000       0x2a .\emFile_V322c\LinkLibrary\PSoC5\GCC\libemf16noslfn.a(FS_Partition.o)
 .text          0x00000000        0x0 .\CortexM3\ARM_GCC_493\Debug\Node-Beaver.a(emFile_1_ConfigMMC_SPI.o)
 .data          0x00000000        0x0 .\CortexM3\ARM_GCC_493\Debug\Node-Beaver.a(emFile_1_ConfigMMC_SPI.o)
 .text          0x00000000        0x0 .\emFile_V322c\LinkLibrary\PSoC5\GCC\libemf16noslfn.a(MMC_Drv.o)
 .text.FS_MMC_ActivateCRC
                0x00000000       0x10 .\emFile_V322c\LinkLibrary\PSoC5\GCC\libemf16noslfn.a(MMC_Drv.o)
 .text.FS_MMC_DeactivateCRC
                0x00000000       0x10 .\emFile_V322c\LinkLibrary\PSoC5\GCC\libemf16noslfn.a(MMC_Drv.o)
 .text._CalcDataCRC16ViaTable
                0x00000000        0x6 .\emFile_V322c\LinkLibrary\PSoC5\GCC\libemf16noslfn.a(MMC_Drv.o)
 .text.FS_MMC_GetCardId
                0x00000000       0x78 .\emFile_V322c\LinkLibrary\PSoC5\GCC\libemf16noslfn.a(MMC_Drv.o)
 .text          0x00000000        0x0 .\emFile_V322c\LinkLibrary\PSoC5\GCC\libemf16noslfn.a(FS_CRC16.o)
 .data          0x00000000        0x0 .\emFile_V322c\LinkLibrary\PSoC5\GCC\libemf16noslfn.a(FS_CRC16.o)
 .bss           0x00000000        0x0 .\emFile_V322c\LinkLibrary\PSoC5\GCC\libemf16noslfn.a(FS_CRC16.o)
 .text.FS_CRC16_Calc
                0x00000000       0x30 .\emFile_V322c\LinkLibrary\PSoC5\GCC\libemf16noslfn.a(FS_CRC16.o)
 .text.FS_CRC16_CalcBitByBit
                0x00000000       0x30 .\emFile_V322c\LinkLibrary\PSoC5\GCC\libemf16noslfn.a(FS_CRC16.o)
 .text.FS_CRC16_Validate
                0x00000000       0x32 .\emFile_V322c\LinkLibrary\PSoC5\GCC\libemf16noslfn.a(FS_CRC16.o)
 .rodata        0x00000000      0x200 .\emFile_V322c\LinkLibrary\PSoC5\GCC\libemf16noslfn.a(FS_CRC16.o)
 .text          0x00000000        0x0 .\CortexM3\ARM_GCC_493\Debug\Node-Beaver.a(emFile_1_MMC_HW_SPI.o)
 .data          0x00000000        0x0 .\CortexM3\ARM_GCC_493\Debug\Node-Beaver.a(emFile_1_MMC_HW_SPI.o)
 .text          0x00000000        0x0 .\CortexM3\ARM_GCC_493\Debug\Node-Beaver.a(emFile_1_SPI0.o)
 .data          0x00000000        0x0 .\CortexM3\ARM_GCC_493\Debug\Node-Beaver.a(emFile_1_SPI0.o)
 .text.emFile_1_SPI0_Stop
                0x00000000       0x4c .\CortexM3\ARM_GCC_493\Debug\Node-Beaver.a(emFile_1_SPI0.o)
 .text.emFile_1_SPI0_DisableTxInt
                0x00000000        0xc .\CortexM3\ARM_GCC_493\Debug\Node-Beaver.a(emFile_1_SPI0.o)
 .text.emFile_1_SPI0_DisableRxInt
                0x00000000        0xc .\CortexM3\ARM_GCC_493\Debug\Node-Beaver.a(emFile_1_SPI0.o)
 .text.emFile_1_SPI0_SetTxInterruptMode
                0x00000000       0x20 .\CortexM3\ARM_GCC_493\Debug\Node-Beaver.a(emFile_1_SPI0.o)
 .text.emFile_1_SPI0_SetRxInterruptMode
                0x00000000       0x20 .\CortexM3\ARM_GCC_493\Debug\Node-Beaver.a(emFile_1_SPI0.o)
 .text.emFile_1_SPI0_GetRxBufferSize
                0x00000000       0x30 .\CortexM3\ARM_GCC_493\Debug\Node-Beaver.a(emFile_1_SPI0.o)
 .text.emFile_1_SPI0_GetTxBufferSize
                0x00000000       0x44 .\CortexM3\ARM_GCC_493\Debug\Node-Beaver.a(emFile_1_SPI0.o)
 .text.emFile_1_SPI0_ClearRxBuffer
                0x00000000       0x28 .\CortexM3\ARM_GCC_493\Debug\Node-Beaver.a(emFile_1_SPI0.o)
 .text.emFile_1_SPI0_ClearTxBuffer
                0x00000000       0x40 .\CortexM3\ARM_GCC_493\Debug\Node-Beaver.a(emFile_1_SPI0.o)
 .text.emFile_1_SPI0_PutArray
                0x00000000       0x38 .\CortexM3\ARM_GCC_493\Debug\Node-Beaver.a(emFile_1_SPI0.o)
 .text.emFile_1_SPI0_EnableInt
                0x00000000       0x10 .\CortexM3\ARM_GCC_493\Debug\Node-Beaver.a(emFile_1_SPI0.o)
 .text.emFile_1_SPI0_DisableInt
                0x00000000       0x10 .\CortexM3\ARM_GCC_493\Debug\Node-Beaver.a(emFile_1_SPI0.o)
 .text.emFile_1_SPI0_SetInterruptMode
                0x00000000       0x30 .\CortexM3\ARM_GCC_493\Debug\Node-Beaver.a(emFile_1_SPI0.o)
 .text.emFile_1_SPI0_ReadStatus
                0x00000000       0x38 .\CortexM3\ARM_GCC_493\Debug\Node-Beaver.a(emFile_1_SPI0.o)
 COMMON         0x00000000        0x2 .\CortexM3\ARM_GCC_493\Debug\Node-Beaver.a(emFile_1_SPI0.o)
 .text          0x00000000        0x0 .\CortexM3\ARM_GCC_493\Debug\Node-Beaver.a(emFile_1_Clock_1.o)
 .data          0x00000000        0x0 .\CortexM3\ARM_GCC_493\Debug\Node-Beaver.a(emFile_1_Clock_1.o)
 .bss           0x00000000        0x0 .\CortexM3\ARM_GCC_493\Debug\Node-Beaver.a(emFile_1_Clock_1.o)
 .text.emFile_1_Clock_1_StopBlock
                0x00000000       0xb0 .\CortexM3\ARM_GCC_493\Debug\Node-Beaver.a(emFile_1_Clock_1.o)
 .text.emFile_1_Clock_1_StandbyPower
                0x00000000       0x40 .\CortexM3\ARM_GCC_493\Debug\Node-Beaver.a(emFile_1_Clock_1.o)
 .text.emFile_1_Clock_1_SetModeRegister
                0x00000000       0x34 .\CortexM3\ARM_GCC_493\Debug\Node-Beaver.a(emFile_1_Clock_1.o)
 .text.emFile_1_Clock_1_ClearModeRegister
                0x00000000       0x34 .\CortexM3\ARM_GCC_493\Debug\Node-Beaver.a(emFile_1_Clock_1.o)
 .text.emFile_1_Clock_1_GetModeRegister
                0x00000000       0x20 .\CortexM3\ARM_GCC_493\Debug\Node-Beaver.a(emFile_1_Clock_1.o)
 .text.emFile_1_Clock_1_SetSourceRegister
                0x00000000       0xbc .\CortexM3\ARM_GCC_493\Debug\Node-Beaver.a(emFile_1_Clock_1.o)
 .text          0x00000000        0x0 .\CortexM3\ARM_GCC_493\Debug\Node-Beaver.a(emFile_1_SPI0_CS.o)
 .data          0x00000000        0x0 .\CortexM3\ARM_GCC_493\Debug\Node-Beaver.a(emFile_1_SPI0_CS.o)
 .bss           0x00000000        0x0 .\CortexM3\ARM_GCC_493\Debug\Node-Beaver.a(emFile_1_SPI0_CS.o)
 .text.emFile_1_SPI0_CS_SetDriveMode
                0x00000000       0x38 .\CortexM3\ARM_GCC_493\Debug\Node-Beaver.a(emFile_1_SPI0_CS.o)
 .text.emFile_1_SPI0_CS_Read
                0x00000000       0x20 .\CortexM3\ARM_GCC_493\Debug\Node-Beaver.a(emFile_1_SPI0_CS.o)
 .text.emFile_1_SPI0_CS_ReadDataReg
                0x00000000       0x20 .\CortexM3\ARM_GCC_493\Debug\Node-Beaver.a(emFile_1_SPI0_CS.o)
 .text          0x00000000        0x0 d:/programming/cypress/psoc creator/4.0/psoc creator/import/gnu/arm/4.9.3/bin/../lib/gcc/arm-none-eabi/4.9.3/../../../../arm-none-eabi/lib/armv7-m\libg_nano.a(lib_a-atoi.o)
 .data          0x00000000        0x0 d:/programming/cypress/psoc creator/4.0/psoc creator/import/gnu/arm/4.9.3/bin/../lib/gcc/arm-none-eabi/4.9.3/../../../../arm-none-eabi/lib/armv7-m\libg_nano.a(lib_a-atoi.o)
 .bss           0x00000000        0x0 d:/programming/cypress/psoc creator/4.0/psoc creator/import/gnu/arm/4.9.3/bin/../lib/gcc/arm-none-eabi/4.9.3/../../../../arm-none-eabi/lib/armv7-m\libg_nano.a(lib_a-atoi.o)
 .text._atoi_r  0x00000000        0x8 d:/programming/cypress/psoc creator/4.0/psoc creator/import/gnu/arm/4.9.3/bin/../lib/gcc/arm-none-eabi/4.9.3/../../../../arm-none-eabi/lib/armv7-m\libg_nano.a(lib_a-atoi.o)
 .text          0x00000000        0x0 d:/programming/cypress/psoc creator/4.0/psoc creator/import/gnu/arm/4.9.3/bin/../lib/gcc/arm-none-eabi/4.9.3/../../../../arm-none-eabi/lib/armv7-m\libg_nano.a(lib_a-errno.o)
 .data          0x00000000        0x0 d:/programming/cypress/psoc creator/4.0/psoc creator/import/gnu/arm/4.9.3/bin/../lib/gcc/arm-none-eabi/4.9.3/../../../../arm-none-eabi/lib/armv7-m\libg_nano.a(lib_a-errno.o)
 .bss           0x00000000        0x0 d:/programming/cypress/psoc creator/4.0/psoc creator/import/gnu/arm/4.9.3/bin/../lib/gcc/arm-none-eabi/4.9.3/../../../../arm-none-eabi/lib/armv7-m\libg_nano.a(lib_a-errno.o)
 .text          0x00000000        0x0 d:/programming/cypress/psoc creator/4.0/psoc creator/import/gnu/arm/4.9.3/bin/../lib/gcc/arm-none-eabi/4.9.3/../../../../arm-none-eabi/lib/armv7-m\libg_nano.a(lib_a-exit.o)
 .data          0x00000000        0x0 d:/programming/cypress/psoc creator/4.0/psoc creator/import/gnu/arm/4.9.3/bin/../lib/gcc/arm-none-eabi/4.9.3/../../../../arm-none-eabi/lib/armv7-m\libg_nano.a(lib_a-exit.o)
 .bss           0x00000000        0x0 d:/programming/cypress/psoc creator/4.0/psoc creator/import/gnu/arm/4.9.3/bin/../lib/gcc/arm-none-eabi/4.9.3/../../../../arm-none-eabi/lib/armv7-m\libg_nano.a(lib_a-exit.o)
 .text.exit     0x00000000       0x28 d:/programming/cypress/psoc creator/4.0/psoc creator/import/gnu/arm/4.9.3/bin/../lib/gcc/arm-none-eabi/4.9.3/../../../../arm-none-eabi/lib/armv7-m\libg_nano.a(lib_a-exit.o)
 .text          0x00000000        0x0 d:/programming/cypress/psoc creator/4.0/psoc creator/import/gnu/arm/4.9.3/bin/../lib/gcc/arm-none-eabi/4.9.3/../../../../arm-none-eabi/lib/armv7-m\libg_nano.a(lib_a-impure.o)
 .data          0x00000000        0x0 d:/programming/cypress/psoc creator/4.0/psoc creator/import/gnu/arm/4.9.3/bin/../lib/gcc/arm-none-eabi/4.9.3/../../../../arm-none-eabi/lib/armv7-m\libg_nano.a(lib_a-impure.o)
 .bss           0x00000000        0x0 d:/programming/cypress/psoc creator/4.0/psoc creator/import/gnu/arm/4.9.3/bin/../lib/gcc/arm-none-eabi/4.9.3/../../../../arm-none-eabi/lib/armv7-m\libg_nano.a(lib_a-impure.o)
 .rodata._global_impure_ptr
                0x00000000        0x4 d:/programming/cypress/psoc creator/4.0/psoc creator/import/gnu/arm/4.9.3/bin/../lib/gcc/arm-none-eabi/4.9.3/../../../../arm-none-eabi/lib/armv7-m\libg_nano.a(lib_a-impure.o)
 .text          0x00000000        0x0 d:/programming/cypress/psoc creator/4.0/psoc creator/import/gnu/arm/4.9.3/bin/../lib/gcc/arm-none-eabi/4.9.3/../../../../arm-none-eabi/lib/armv7-m\libg_nano.a(lib_a-init.o)
 .data          0x00000000        0x0 d:/programming/cypress/psoc creator/4.0/psoc creator/import/gnu/arm/4.9.3/bin/../lib/gcc/arm-none-eabi/4.9.3/../../../../arm-none-eabi/lib/armv7-m\libg_nano.a(lib_a-init.o)
 .bss           0x00000000        0x0 d:/programming/cypress/psoc creator/4.0/psoc creator/import/gnu/arm/4.9.3/bin/../lib/gcc/arm-none-eabi/4.9.3/../../../../arm-none-eabi/lib/armv7-m\libg_nano.a(lib_a-init.o)
 .text          0x00000000        0x0 d:/programming/cypress/psoc creator/4.0/psoc creator/import/gnu/arm/4.9.3/bin/../lib/gcc/arm-none-eabi/4.9.3/../../../../arm-none-eabi/lib/armv7-m\libg_nano.a(lib_a-memcmp.o)
 .data          0x00000000        0x0 d:/programming/cypress/psoc creator/4.0/psoc creator/import/gnu/arm/4.9.3/bin/../lib/gcc/arm-none-eabi/4.9.3/../../../../arm-none-eabi/lib/armv7-m\libg_nano.a(lib_a-memcmp.o)
 .bss           0x00000000        0x0 d:/programming/cypress/psoc creator/4.0/psoc creator/import/gnu/arm/4.9.3/bin/../lib/gcc/arm-none-eabi/4.9.3/../../../../arm-none-eabi/lib/armv7-m\libg_nano.a(lib_a-memcmp.o)
 .text.memcmp   0x00000000       0x20 d:/programming/cypress/psoc creator/4.0/psoc creator/import/gnu/arm/4.9.3/bin/../lib/gcc/arm-none-eabi/4.9.3/../../../../arm-none-eabi/lib/armv7-m\libg_nano.a(lib_a-memcmp.o)
 .text          0x00000000        0x0 d:/programming/cypress/psoc creator/4.0/psoc creator/import/gnu/arm/4.9.3/bin/../lib/gcc/arm-none-eabi/4.9.3/../../../../arm-none-eabi/lib/armv7-m\libg_nano.a(lib_a-memcpy.o)
 .data          0x00000000        0x0 d:/programming/cypress/psoc creator/4.0/psoc creator/import/gnu/arm/4.9.3/bin/../lib/gcc/arm-none-eabi/4.9.3/../../../../arm-none-eabi/lib/armv7-m\libg_nano.a(lib_a-memcpy.o)
 .bss           0x00000000        0x0 d:/programming/cypress/psoc creator/4.0/psoc creator/import/gnu/arm/4.9.3/bin/../lib/gcc/arm-none-eabi/4.9.3/../../../../arm-none-eabi/lib/armv7-m\libg_nano.a(lib_a-memcpy.o)
 .text          0x00000000        0x0 d:/programming/cypress/psoc creator/4.0/psoc creator/import/gnu/arm/4.9.3/bin/../lib/gcc/arm-none-eabi/4.9.3/../../../../arm-none-eabi/lib/armv7-m\libg_nano.a(lib_a-memset.o)
 .data          0x00000000        0x0 d:/programming/cypress/psoc creator/4.0/psoc creator/import/gnu/arm/4.9.3/bin/../lib/gcc/arm-none-eabi/4.9.3/../../../../arm-none-eabi/lib/armv7-m\libg_nano.a(lib_a-memset.o)
 .bss           0x00000000        0x0 d:/programming/cypress/psoc creator/4.0/psoc creator/import/gnu/arm/4.9.3/bin/../lib/gcc/arm-none-eabi/4.9.3/../../../../arm-none-eabi/lib/armv7-m\libg_nano.a(lib_a-memset.o)
 .text          0x00000000        0x0 d:/programming/cypress/psoc creator/4.0/psoc creator/import/gnu/arm/4.9.3/bin/../lib/gcc/arm-none-eabi/4.9.3/../../../../arm-none-eabi/lib/armv7-m\libg_nano.a(lib_a-sprintf.o)
 .data          0x00000000        0x0 d:/programming/cypress/psoc creator/4.0/psoc creator/import/gnu/arm/4.9.3/bin/../lib/gcc/arm-none-eabi/4.9.3/../../../../arm-none-eabi/lib/armv7-m\libg_nano.a(lib_a-sprintf.o)
 .bss           0x00000000        0x0 d:/programming/cypress/psoc creator/4.0/psoc creator/import/gnu/arm/4.9.3/bin/../lib/gcc/arm-none-eabi/4.9.3/../../../../arm-none-eabi/lib/armv7-m\libg_nano.a(lib_a-sprintf.o)
 .text._sprintf_r
                0x00000000       0x40 d:/programming/cypress/psoc creator/4.0/psoc creator/import/gnu/arm/4.9.3/bin/../lib/gcc/arm-none-eabi/4.9.3/../../../../arm-none-eabi/lib/armv7-m\libg_nano.a(lib_a-sprintf.o)
 .text          0x00000000        0x0 d:/programming/cypress/psoc creator/4.0/psoc creator/import/gnu/arm/4.9.3/bin/../lib/gcc/arm-none-eabi/4.9.3/../../../../arm-none-eabi/lib/armv7-m\libg_nano.a(lib_a-strlen.o)
 .data          0x00000000        0x0 d:/programming/cypress/psoc creator/4.0/psoc creator/import/gnu/arm/4.9.3/bin/../lib/gcc/arm-none-eabi/4.9.3/../../../../arm-none-eabi/lib/armv7-m\libg_nano.a(lib_a-strlen.o)
 .bss           0x00000000        0x0 d:/programming/cypress/psoc creator/4.0/psoc creator/import/gnu/arm/4.9.3/bin/../lib/gcc/arm-none-eabi/4.9.3/../../../../arm-none-eabi/lib/armv7-m\libg_nano.a(lib_a-strlen.o)
 .text.strlen   0x00000000       0x10 d:/programming/cypress/psoc creator/4.0/psoc creator/import/gnu/arm/4.9.3/bin/../lib/gcc/arm-none-eabi/4.9.3/../../../../arm-none-eabi/lib/armv7-m\libg_nano.a(lib_a-strlen.o)
 .text          0x00000000        0x0 d:/programming/cypress/psoc creator/4.0/psoc creator/import/gnu/arm/4.9.3/bin/../lib/gcc/arm-none-eabi/4.9.3/../../../../arm-none-eabi/lib/armv7-m\libg_nano.a(lib_a-strtok.o)
 .data          0x00000000        0x0 d:/programming/cypress/psoc creator/4.0/psoc creator/import/gnu/arm/4.9.3/bin/../lib/gcc/arm-none-eabi/4.9.3/../../../../arm-none-eabi/lib/armv7-m\libg_nano.a(lib_a-strtok.o)
 .bss           0x00000000        0x0 d:/programming/cypress/psoc creator/4.0/psoc creator/import/gnu/arm/4.9.3/bin/../lib/gcc/arm-none-eabi/4.9.3/../../../../arm-none-eabi/lib/armv7-m\libg_nano.a(lib_a-strtok.o)
 .text          0x00000000        0x0 d:/programming/cypress/psoc creator/4.0/psoc creator/import/gnu/arm/4.9.3/bin/../lib/gcc/arm-none-eabi/4.9.3/../../../../arm-none-eabi/lib/armv7-m\libg_nano.a(lib_a-strtok_r.o)
 .data          0x00000000        0x0 d:/programming/cypress/psoc creator/4.0/psoc creator/import/gnu/arm/4.9.3/bin/../lib/gcc/arm-none-eabi/4.9.3/../../../../arm-none-eabi/lib/armv7-m\libg_nano.a(lib_a-strtok_r.o)
 .bss           0x00000000        0x0 d:/programming/cypress/psoc creator/4.0/psoc creator/import/gnu/arm/4.9.3/bin/../lib/gcc/arm-none-eabi/4.9.3/../../../../arm-none-eabi/lib/armv7-m\libg_nano.a(lib_a-strtok_r.o)
 .text.strtok_r
                0x00000000        0x6 d:/programming/cypress/psoc creator/4.0/psoc creator/import/gnu/arm/4.9.3/bin/../lib/gcc/arm-none-eabi/4.9.3/../../../../arm-none-eabi/lib/armv7-m\libg_nano.a(lib_a-strtok_r.o)
 .text          0x00000000        0x0 d:/programming/cypress/psoc creator/4.0/psoc creator/import/gnu/arm/4.9.3/bin/../lib/gcc/arm-none-eabi/4.9.3/../../../../arm-none-eabi/lib/armv7-m\libg_nano.a(lib_a-strtol.o)
 .data          0x00000000        0x0 d:/programming/cypress/psoc creator/4.0/psoc creator/import/gnu/arm/4.9.3/bin/../lib/gcc/arm-none-eabi/4.9.3/../../../../arm-none-eabi/lib/armv7-m\libg_nano.a(lib_a-strtol.o)
 .bss           0x00000000        0x0 d:/programming/cypress/psoc creator/4.0/psoc creator/import/gnu/arm/4.9.3/bin/../lib/gcc/arm-none-eabi/4.9.3/../../../../arm-none-eabi/lib/armv7-m\libg_nano.a(lib_a-strtol.o)
 .text          0x00000000        0x0 d:/programming/cypress/psoc creator/4.0/psoc creator/import/gnu/arm/4.9.3/bin/../lib/gcc/arm-none-eabi/4.9.3/../../../../arm-none-eabi/lib/armv7-m\libg_nano.a(lib_a-ctype_.o)
 .data          0x00000000        0x0 d:/programming/cypress/psoc creator/4.0/psoc creator/import/gnu/arm/4.9.3/bin/../lib/gcc/arm-none-eabi/4.9.3/../../../../arm-none-eabi/lib/armv7-m\libg_nano.a(lib_a-ctype_.o)
 .bss           0x00000000        0x0 d:/programming/cypress/psoc creator/4.0/psoc creator/import/gnu/arm/4.9.3/bin/../lib/gcc/arm-none-eabi/4.9.3/../../../../arm-none-eabi/lib/armv7-m\libg_nano.a(lib_a-ctype_.o)
 .text          0x00000000        0x0 d:/programming/cypress/psoc creator/4.0/psoc creator/import/gnu/arm/4.9.3/bin/../lib/gcc/arm-none-eabi/4.9.3/../../../../arm-none-eabi/lib/armv7-m\libg_nano.a(lib_a-malloc.o)
 .data          0x00000000        0x0 d:/programming/cypress/psoc creator/4.0/psoc creator/import/gnu/arm/4.9.3/bin/../lib/gcc/arm-none-eabi/4.9.3/../../../../arm-none-eabi/lib/armv7-m\libg_nano.a(lib_a-malloc.o)
 .bss           0x00000000        0x0 d:/programming/cypress/psoc creator/4.0/psoc creator/import/gnu/arm/4.9.3/bin/../lib/gcc/arm-none-eabi/4.9.3/../../../../arm-none-eabi/lib/armv7-m\libg_nano.a(lib_a-malloc.o)
 .text.free     0x00000000       0x10 d:/programming/cypress/psoc creator/4.0/psoc creator/import/gnu/arm/4.9.3/bin/../lib/gcc/arm-none-eabi/4.9.3/../../../../arm-none-eabi/lib/armv7-m\libg_nano.a(lib_a-malloc.o)
 .text          0x00000000        0x0 d:/programming/cypress/psoc creator/4.0/psoc creator/import/gnu/arm/4.9.3/bin/../lib/gcc/arm-none-eabi/4.9.3/../../../../arm-none-eabi/lib/armv7-m\libg_nano.a(lib_a-nano-freer.o)
 .data          0x00000000        0x0 d:/programming/cypress/psoc creator/4.0/psoc creator/import/gnu/arm/4.9.3/bin/../lib/gcc/arm-none-eabi/4.9.3/../../../../arm-none-eabi/lib/armv7-m\libg_nano.a(lib_a-nano-freer.o)
 .bss           0x00000000        0x0 d:/programming/cypress/psoc creator/4.0/psoc creator/import/gnu/arm/4.9.3/bin/../lib/gcc/arm-none-eabi/4.9.3/../../../../arm-none-eabi/lib/armv7-m\libg_nano.a(lib_a-nano-freer.o)
 .text          0x00000000        0x0 d:/programming/cypress/psoc creator/4.0/psoc creator/import/gnu/arm/4.9.3/bin/../lib/gcc/arm-none-eabi/4.9.3/../../../../arm-none-eabi/lib/armv7-m\libg_nano.a(lib_a-nano-mallocr.o)
 .data          0x00000000        0x0 d:/programming/cypress/psoc creator/4.0/psoc creator/import/gnu/arm/4.9.3/bin/../lib/gcc/arm-none-eabi/4.9.3/../../../../arm-none-eabi/lib/armv7-m\libg_nano.a(lib_a-nano-mallocr.o)
 .bss           0x00000000        0x0 d:/programming/cypress/psoc creator/4.0/psoc creator/import/gnu/arm/4.9.3/bin/../lib/gcc/arm-none-eabi/4.9.3/../../../../arm-none-eabi/lib/armv7-m\libg_nano.a(lib_a-nano-mallocr.o)
 .text          0x00000000        0x0 d:/programming/cypress/psoc creator/4.0/psoc creator/import/gnu/arm/4.9.3/bin/../lib/gcc/arm-none-eabi/4.9.3/../../../../arm-none-eabi/lib/armv7-m\libg_nano.a(lib_a-nano-svfprintf.o)
 .data          0x00000000        0x0 d:/programming/cypress/psoc creator/4.0/psoc creator/import/gnu/arm/4.9.3/bin/../lib/gcc/arm-none-eabi/4.9.3/../../../../arm-none-eabi/lib/armv7-m\libg_nano.a(lib_a-nano-svfprintf.o)
 .bss           0x00000000        0x0 d:/programming/cypress/psoc creator/4.0/psoc creator/import/gnu/arm/4.9.3/bin/../lib/gcc/arm-none-eabi/4.9.3/../../../../arm-none-eabi/lib/armv7-m\libg_nano.a(lib_a-nano-svfprintf.o)
 .text.__ssprint_r
                0x00000000       0xfe d:/programming/cypress/psoc creator/4.0/psoc creator/import/gnu/arm/4.9.3/bin/../lib/gcc/arm-none-eabi/4.9.3/../../../../arm-none-eabi/lib/armv7-m\libg_nano.a(lib_a-nano-svfprintf.o)
 .text          0x00000000        0x0 d:/programming/cypress/psoc creator/4.0/psoc creator/import/gnu/arm/4.9.3/bin/../lib/gcc/arm-none-eabi/4.9.3/../../../../arm-none-eabi/lib/armv7-m\libg_nano.a(lib_a-nano-vfprintf_i.o)
 .data          0x00000000        0x0 d:/programming/cypress/psoc creator/4.0/psoc creator/import/gnu/arm/4.9.3/bin/../lib/gcc/arm-none-eabi/4.9.3/../../../../arm-none-eabi/lib/armv7-m\libg_nano.a(lib_a-nano-vfprintf_i.o)
 .bss           0x00000000        0x0 d:/programming/cypress/psoc creator/4.0/psoc creator/import/gnu/arm/4.9.3/bin/../lib/gcc/arm-none-eabi/4.9.3/../../../../arm-none-eabi/lib/armv7-m\libg_nano.a(lib_a-nano-vfprintf_i.o)
 .text          0x00000000        0x0 d:/programming/cypress/psoc creator/4.0/psoc creator/import/gnu/arm/4.9.3/bin/../lib/gcc/arm-none-eabi/4.9.3/../../../../arm-none-eabi/lib/armv7-m\libg_nano.a(lib_a-sbrkr.o)
 .data          0x00000000        0x0 d:/programming/cypress/psoc creator/4.0/psoc creator/import/gnu/arm/4.9.3/bin/../lib/gcc/arm-none-eabi/4.9.3/../../../../arm-none-eabi/lib/armv7-m\libg_nano.a(lib_a-sbrkr.o)
 .bss           0x00000000        0x0 d:/programming/cypress/psoc creator/4.0/psoc creator/import/gnu/arm/4.9.3/bin/../lib/gcc/arm-none-eabi/4.9.3/../../../../arm-none-eabi/lib/armv7-m\libg_nano.a(lib_a-sbrkr.o)
 .text          0x00000000        0x0 d:/programming/cypress/psoc creator/4.0/psoc creator/import/gnu/arm/4.9.3/bin/../lib/gcc/arm-none-eabi/4.9.3/../../../../arm-none-eabi/lib/armv7-m\libg_nano.a(lib_a-memchr.o)
 .data          0x00000000        0x0 d:/programming/cypress/psoc creator/4.0/psoc creator/import/gnu/arm/4.9.3/bin/../lib/gcc/arm-none-eabi/4.9.3/../../../../arm-none-eabi/lib/armv7-m\libg_nano.a(lib_a-memchr.o)
 .bss           0x00000000        0x0 d:/programming/cypress/psoc creator/4.0/psoc creator/import/gnu/arm/4.9.3/bin/../lib/gcc/arm-none-eabi/4.9.3/../../../../arm-none-eabi/lib/armv7-m\libg_nano.a(lib_a-memchr.o)
 .text          0x00000000        0x0 d:/programming/cypress/psoc creator/4.0/psoc creator/import/gnu/arm/4.9.3/bin/../lib/gcc/arm-none-eabi/4.9.3/../../../../arm-none-eabi/lib/armv7-m\libg_nano.a(lib_a-memmove.o)
 .data          0x00000000        0x0 d:/programming/cypress/psoc creator/4.0/psoc creator/import/gnu/arm/4.9.3/bin/../lib/gcc/arm-none-eabi/4.9.3/../../../../arm-none-eabi/lib/armv7-m\libg_nano.a(lib_a-memmove.o)
 .bss           0x00000000        0x0 d:/programming/cypress/psoc creator/4.0/psoc creator/import/gnu/arm/4.9.3/bin/../lib/gcc/arm-none-eabi/4.9.3/../../../../arm-none-eabi/lib/armv7-m\libg_nano.a(lib_a-memmove.o)
 .text          0x00000000        0x0 d:/programming/cypress/psoc creator/4.0/psoc creator/import/gnu/arm/4.9.3/bin/../lib/gcc/arm-none-eabi/4.9.3/../../../../arm-none-eabi/lib/armv7-m\libg_nano.a(lib_a-nano-reallocr.o)
 .data          0x00000000        0x0 d:/programming/cypress/psoc creator/4.0/psoc creator/import/gnu/arm/4.9.3/bin/../lib/gcc/arm-none-eabi/4.9.3/../../../../arm-none-eabi/lib/armv7-m\libg_nano.a(lib_a-nano-reallocr.o)
 .bss           0x00000000        0x0 d:/programming/cypress/psoc creator/4.0/psoc creator/import/gnu/arm/4.9.3/bin/../lib/gcc/arm-none-eabi/4.9.3/../../../../arm-none-eabi/lib/armv7-m\libg_nano.a(lib_a-nano-reallocr.o)
 .text          0x00000000        0x0 d:/programming/cypress/psoc creator/4.0/psoc creator/import/gnu/arm/4.9.3/bin/../lib/gcc/arm-none-eabi/4.9.3/../../../../arm-none-eabi/lib/armv7-m\libg_nano.a(lib_a-reent.o)
 .data          0x00000000        0x0 d:/programming/cypress/psoc creator/4.0/psoc creator/import/gnu/arm/4.9.3/bin/../lib/gcc/arm-none-eabi/4.9.3/../../../../arm-none-eabi/lib/armv7-m\libg_nano.a(lib_a-reent.o)
 .bss           0x00000000        0x0 d:/programming/cypress/psoc creator/4.0/psoc creator/import/gnu/arm/4.9.3/bin/../lib/gcc/arm-none-eabi/4.9.3/../../../../arm-none-eabi/lib/armv7-m\libg_nano.a(lib_a-reent.o)
 .text.cleanup_glue
                0x00000000       0x1a d:/programming/cypress/psoc creator/4.0/psoc creator/import/gnu/arm/4.9.3/bin/../lib/gcc/arm-none-eabi/4.9.3/../../../../arm-none-eabi/lib/armv7-m\libg_nano.a(lib_a-reent.o)
 .text._reclaim_reent
                0x00000000       0xb4 d:/programming/cypress/psoc creator/4.0/psoc creator/import/gnu/arm/4.9.3/bin/../lib/gcc/arm-none-eabi/4.9.3/../../../../arm-none-eabi/lib/armv7-m\libg_nano.a(lib_a-reent.o)
 .text          0x00000000        0x0 d:/programming/cypress/psoc creator/4.0/psoc creator/import/gnu/arm/4.9.3/bin/../lib/gcc/arm-none-eabi/4.9.3/../../../../arm-none-eabi/lib/armv7-m\libg_nano.a(lib_a-nano-msizer.o)
 .data          0x00000000        0x0 d:/programming/cypress/psoc creator/4.0/psoc creator/import/gnu/arm/4.9.3/bin/../lib/gcc/arm-none-eabi/4.9.3/../../../../arm-none-eabi/lib/armv7-m\libg_nano.a(lib_a-nano-msizer.o)
 .bss           0x00000000        0x0 d:/programming/cypress/psoc creator/4.0/psoc creator/import/gnu/arm/4.9.3/bin/../lib/gcc/arm-none-eabi/4.9.3/../../../../arm-none-eabi/lib/armv7-m\libg_nano.a(lib_a-nano-msizer.o)
 .text          0x00000000        0x0 d:/programming/cypress/psoc creator/4.0/psoc creator/import/gnu/arm/4.9.3/bin/../lib/gcc/arm-none-eabi/4.9.3/armv7-m/crtend.o
 .data          0x00000000        0x0 d:/programming/cypress/psoc creator/4.0/psoc creator/import/gnu/arm/4.9.3/bin/../lib/gcc/arm-none-eabi/4.9.3/armv7-m/crtend.o
 .bss           0x00000000        0x0 d:/programming/cypress/psoc creator/4.0/psoc creator/import/gnu/arm/4.9.3/bin/../lib/gcc/arm-none-eabi/4.9.3/armv7-m/crtend.o
 .text          0x00000000        0x0 d:/programming/cypress/psoc creator/4.0/psoc creator/import/gnu/arm/4.9.3/bin/../lib/gcc/arm-none-eabi/4.9.3/armv7-m/crtn.o
 .data          0x00000000        0x0 d:/programming/cypress/psoc creator/4.0/psoc creator/import/gnu/arm/4.9.3/bin/../lib/gcc/arm-none-eabi/4.9.3/armv7-m/crtn.o
 .bss           0x00000000        0x0 d:/programming/cypress/psoc creator/4.0/psoc creator/import/gnu/arm/4.9.3/bin/../lib/gcc/arm-none-eabi/4.9.3/armv7-m/crtn.o

Memory Configuration

Name             Origin             Length             Attributes
rom              0x00000000         0x00040000         xr
ram              0x1fff8000         0x00010000         xrw
*default*        0x00000000         0xffffffff

Linker script and memory map

LOAD d:/programming/cypress/psoc creator/4.0/psoc creator/import/gnu/arm/4.9.3/bin/../lib/gcc/arm-none-eabi/4.9.3/armv7-m/crti.o
LOAD d:/programming/cypress/psoc creator/4.0/psoc creator/import/gnu/arm/4.9.3/bin/../lib/gcc/arm-none-eabi/4.9.3/armv7-m/crtbegin.o
LOAD d:/programming/cypress/psoc creator/4.0/psoc creator/import/gnu/arm/4.9.3/bin/../lib/gcc/arm-none-eabi/4.9.3/../../../../arm-none-eabi/lib/armv7-m/crt0.o
START GROUP
LOAD .\CortexM3\ARM_GCC_493\Debug\main.o
LOAD .\CortexM3\ARM_GCC_493\Debug\can_manager.o
LOAD .\CortexM3\ARM_GCC_493\Debug\sd_manager.o
LOAD .\CortexM3\ARM_GCC_493\Debug\usb_manager.o
LOAD .\CortexM3\ARM_GCC_493\Debug\radio_manager.o
LOAD .\CortexM3\ARM_GCC_493\Debug\time_manager.o
LOAD .\CortexM3\ARM_GCC_493\Debug\cymetadata.o
LOAD .\CortexM3\ARM_GCC_493\Debug\Cm3Start.o
LOAD .\CortexM3\ARM_GCC_493\Debug\Node-Beaver.a
LOAD D:\Programming\Cypress\PSoC Creator\4.0\PSoC Creator\psoc\content\cycomponentlibrary\CyComponentLibrary.cylib\CortexM3\ARM_GCC_493\Debug\CyComponentLibrary.a
LOAD .\emFile_V322c\LinkLibrary\PSoC5\GCC\libemf16noslfn.a
END GROUP
START GROUP
LOAD d:/programming/cypress/psoc creator/4.0/psoc creator/import/gnu/arm/4.9.3/bin/../lib/gcc/arm-none-eabi/4.9.3/armv7-m\libgcc.a
LOAD d:/programming/cypress/psoc creator/4.0/psoc creator/import/gnu/arm/4.9.3/bin/../lib/gcc/arm-none-eabi/4.9.3/../../../../arm-none-eabi/lib/armv7-m\libg_nano.a
LOAD d:/programming/cypress/psoc creator/4.0/psoc creator/import/gnu/arm/4.9.3/bin/../lib/gcc/arm-none-eabi/4.9.3/../../../../arm-none-eabi/lib/armv7-m\libc_nano.a
END GROUP
START GROUP
LOAD d:/programming/cypress/psoc creator/4.0/psoc creator/import/gnu/arm/4.9.3/bin/../lib/gcc/arm-none-eabi/4.9.3/armv7-m\libgcc.a
LOAD d:/programming/cypress/psoc creator/4.0/psoc creator/import/gnu/arm/4.9.3/bin/../lib/gcc/arm-none-eabi/4.9.3/../../../../arm-none-eabi/lib/armv7-m\libc_nano.a
END GROUP
LOAD d:/programming/cypress/psoc creator/4.0/psoc creator/import/gnu/arm/4.9.3/bin/../lib/gcc/arm-none-eabi/4.9.3/armv7-m/crtend.o
LOAD d:/programming/cypress/psoc creator/4.0/psoc creator/import/gnu/arm/4.9.3/bin/../lib/gcc/arm-none-eabi/4.9.3/armv7-m/crtn.o
START GROUP
LOAD d:/programming/cypress/psoc creator/4.0/psoc creator/import/gnu/arm/4.9.3/bin/../lib/gcc/arm-none-eabi/4.9.3/armv7-m\libgcc.a
LOAD d:/programming/cypress/psoc creator/4.0/psoc creator/import/gnu/arm/4.9.3/bin/../lib/gcc/arm-none-eabi/4.9.3/../../../../arm-none-eabi/lib/armv7-m\libc.a
LOAD d:/programming/cypress/psoc creator/4.0/psoc creator/import/gnu/arm/4.9.3/bin/../lib/gcc/arm-none-eabi/4.9.3/../../../../arm-none-eabi/lib/armv7-m\libnosys.a
END GROUP
                0x00000000                CY_APPL_ORIGIN = 0x0
                0x00000100                CY_FLASH_ROW_SIZE = 0x100
                0x00000020                CY_ECC_ROW_SIZE = 0x20
                0x00000000                CY_EE_IN_BTLDR = 0x0
                0x00000000                CY_APPL_LOADABLE = 0x0
                0x00000800                CY_EE_SIZE = 0x800
                0x00000001                CY_APPL_NUM = 0x1
                0x00000001                CY_APPL_MAX = 0x1
                0x00000040                CY_METADATA_SIZE = 0x40
                0x00000000                CY_APPL_LOADABLE = 0x0
                0x00000000                CY_CHECKSUM_EXCLUDE_SIZE = ALIGN (0x0, CY_FLASH_ROW_SIZE)
                0x1fffd470                PROVIDE (__cy_heap_start, _end)
                0x00000001                PROVIDE (__cy_region_num, ((__cy_regions_end - __cy_regions) / 0x10))
                0x20008000                PROVIDE (__cy_stack, (ORIGIN (ram) + 0x10000))
                0x20004000                PROVIDE (__cy_heap_end, (__cy_stack - 0x4000))

.cybootloader   0x00000000        0x0
 *(.cybootloader)
                0x00000000                appl1_start = CY_APPL_ORIGIN?CY_APPL_ORIGIN:ALIGN (CY_FLASH_ROW_SIZE)
                0x0001ff00                appl2_start = (appl1_start + ALIGN ((((0x40000 - appl1_start) - (0x2 * CY_FLASH_ROW_SIZE)) / 0x2), CY_FLASH_ROW_SIZE))
                0x00000000                appl_start = (CY_APPL_NUM == 0x1)?appl1_start:appl2_start
                0x00000000                ecc_offset = ((appl_start / CY_FLASH_ROW_SIZE) * CY_ECC_ROW_SIZE)
                0x00000000                ee_offset = (CY_APPL_LOADABLE && ! (CY_EE_IN_BTLDR))?((CY_EE_SIZE / CY_APPL_MAX) * (CY_APPL_NUM - 0x1)):0x0
                0x00000800                ee_size = (CY_APPL_LOADABLE && ! (CY_EE_IN_BTLDR))?(CY_EE_SIZE / CY_APPL_MAX):CY_EE_SIZE
                0x00000000                PROVIDE (CY_ECC_OFFSET, ecc_offset)

.text           0x00000000     0xa2fa
 CREATE_OBJECT_SYMBOLS
                0x00000000                PROVIDE (__cy_interrupt_vector, RomVectors)
 *(.romvectors)
 .romvectors    0x00000000       0x10 .\CortexM3\ARM_GCC_493\Debug\Cm3Start.o
                0x00000000                RomVectors
                0x00000001                ASSERT ((. != __cy_interrupt_vector), No interrupt vector)
                0x00000001                ASSERT (CY_APPL_ORIGIN?(SIZEOF (.cybootloader) <= CY_APPL_ORIGIN):0x1, Wrong image location)
                0x00000010                PROVIDE (__cy_reset, Reset)
 *(.text.Reset)
 .text.Reset    0x00000010       0x18 .\CortexM3\ARM_GCC_493\Debug\Cm3Start.o
                0x00000010                Reset
                0x00000001                ASSERT ((. != __cy_reset), No reset code)
 *(.dma_init)
                0x00000001                ASSERT ((((appl_start + .) <= 0x10000) || 0x1), DMA Init must be within the first 64k of flash)
 *(.text .text.* .gnu.linkonce.t.*)
 .text          0x00000028       0x5c d:/programming/cypress/psoc creator/4.0/psoc creator/import/gnu/arm/4.9.3/bin/../lib/gcc/arm-none-eabi/4.9.3/armv7-m/crtbegin.o
 .text.main     0x00000084       0x40 .\CortexM3\ARM_GCC_493\Debug\main.o
                0x00000084                main
 .text.msg_recieve
                0x000000c4       0x2c .\CortexM3\ARM_GCC_493\Debug\main.o
                0x000000c4                msg_recieve
 .text.car_state_interrupt
                0x000000f0       0x54 .\CortexM3\ARM_GCC_493\Debug\can_manager.o
                0x000000f0                car_state_interrupt
 .text.heartbeat_interrupt
                0x00000144       0x34 .\CortexM3\ARM_GCC_493\Debug\can_manager.o
                0x00000144                heartbeat_interrupt
 .text.can_init
                0x00000178       0xc8 .\CortexM3\ARM_GCC_493\Debug\can_manager.o
                0x00000178                can_init
 .text.can_msg_init
                0x00000240      0x124 .\CortexM3\ARM_GCC_493\Debug\can_manager.o
                0x00000240                can_msg_init
 .text.can_process
                0x00000364      0x140 .\CortexM3\ARM_GCC_493\Debug\can_manager.o
                0x00000364                can_process
 .text.can_compare
                0x000004a4      0x1d8 .\CortexM3\ARM_GCC_493\Debug\can_manager.o
                0x000004a4                can_compare
 .text.power_interrupt
                0x0000067c       0x1c .\CortexM3\ARM_GCC_493\Debug\sd_manager.o
                0x0000067c                power_interrupt
 .text.sd_interrupt
                0x00000698        0xc .\CortexM3\ARM_GCC_493\Debug\sd_manager.o
                0x00000698                sd_interrupt
 .text.sd_init  0x000006a4      0x1a0 .\CortexM3\ARM_GCC_493\Debug\sd_manager.o
                0x000006a4                sd_init
 .text.sd_time_set
                0x00000844      0x190 .\CortexM3\ARM_GCC_493\Debug\sd_manager.o
                0x00000844                sd_time_set
 .text.sd_write
                0x000009d4      0x160 .\CortexM3\ARM_GCC_493\Debug\sd_manager.o
                0x000009d4                sd_write
 .text.sd_buffer
                0x00000b34       0x50 .\CortexM3\ARM_GCC_493\Debug\sd_manager.o
                0x00000b34                sd_buffer
 .text.sd_stop  0x00000b84       0x28 .\CortexM3\ARM_GCC_493\Debug\sd_manager.o
                0x00000b84                sd_stop
 .text.usb_init
                0x00000bac       0x10 .\CortexM3\ARM_GCC_493\Debug\usb_manager.o
                0x00000bac                usb_init
 .text.usb_write
                0x00000bbc       0x14 .\CortexM3\ARM_GCC_493\Debug\usb_manager.o
                0x00000bbc                usb_write
 .text.radio_init_UART
                0x00000bd0        0xc .\CortexM3\ARM_GCC_493\Debug\radio_manager.o
                0x00000bd0                radio_init_UART
 .text.xbee_send
                0x00000bdc       0x94 .\CortexM3\ARM_GCC_493\Debug\radio_manager.o
                0x00000bdc                xbee_send
 .text.time_refresh_vector
                0x00000c70       0x28 .\CortexM3\ARM_GCC_493\Debug\time_manager.o
                0x00000c70                time_refresh_vector
 .text.time_init
                0x00000c98       0x3c .\CortexM3\ARM_GCC_493\Debug\time_manager.o
                0x00000c98                time_init
 .text.time_announce
                0x00000cd4       0x7c .\CortexM3\ARM_GCC_493\Debug\time_manager.o
                0x00000cd4                time_announce
 .text.time_get
                0x00000d50       0x34 .\CortexM3\ARM_GCC_493\Debug\time_manager.o
                0x00000d50                time_get
 .text.time_set
                0x00000d84      0x198 .\CortexM3\ARM_GCC_493\Debug\time_manager.o
                0x00000d84                time_set
 .text.time_retreive
                0x00000f1c      0x154 .\CortexM3\ARM_GCC_493\Debug\time_manager.o
                0x00000f1c                time_retreive
 .text.IntDefaultHandler
                0x00001070       0x14 .\CortexM3\ARM_GCC_493\Debug\Cm3Start.o
                0x00001070                IntDefaultHandler
 .text._sbrk    0x00001084       0x54 .\CortexM3\ARM_GCC_493\Debug\Cm3Start.o
                0x00001084                _sbrk
 .text.Start_c  0x000010d8       0x98 .\CortexM3\ARM_GCC_493\Debug\Cm3Start.o
                0x000010d8                Start_c
 .text.initialize_psoc
                0x00001170       0x8c .\CortexM3\ARM_GCC_493\Debug\Cm3Start.o
                0x00001170                initialize_psoc
 .text.CYMEMZERO
                0x000011fc       0x1c .\CortexM3\ARM_GCC_493\Debug\Node-Beaver.a(cyfitter_cfg.o)
 .text.CYCONFIGCPY
                0x00001218       0x1c .\CortexM3\ARM_GCC_493\Debug\Node-Beaver.a(cyfitter_cfg.o)
 .text.CyClockStartupError
                0x00001234        0xc .\CortexM3\ARM_GCC_493\Debug\Node-Beaver.a(cyfitter_cfg.o)
 .text.cfg_write_bytes32
                0x00001240       0x74 .\CortexM3\ARM_GCC_493\Debug\Node-Beaver.a(cyfitter_cfg.o)
 .text.ClockSetup
                0x000012b4      0x130 .\CortexM3\ARM_GCC_493\Debug\Node-Beaver.a(cyfitter_cfg.o)
 .text.AnalogSetDefault
                0x000013e4       0x60 .\CortexM3\ARM_GCC_493\Debug\Node-Beaver.a(cyfitter_cfg.o)
 .text.cyfitter_cfg
                0x00001444      0x1c8 .\CortexM3\ARM_GCC_493\Debug\Node-Beaver.a(cyfitter_cfg.o)
                0x00001444                cyfitter_cfg
 .text.CyHalt   0x0000160c       0x18 .\CortexM3\ARM_GCC_493\Debug\Node-Beaver.a(CyLib.o)
                0x0000160c                CyHalt
 .text.CyDelay  0x00001624       0x44 .\CortexM3\ARM_GCC_493\Debug\Node-Beaver.a(CyLib.o)
                0x00001624                CyDelay
 .text.CyDelayUs
                0x00001668       0x24 .\CortexM3\ARM_GCC_493\Debug\Node-Beaver.a(CyLib.o)
                0x00001668                CyDelayUs
 .text.CyIntSetVector
                0x0000168c       0x50 .\CortexM3\ARM_GCC_493\Debug\Node-Beaver.a(CyLib.o)
                0x0000168c                CyIntSetVector
 .text.CyIntSetPriority
                0x000016dc       0x44 .\CortexM3\ARM_GCC_493\Debug\Node-Beaver.a(CyLib.o)
                0x000016dc                CyIntSetPriority
 .text.CyGetUniqueId
                0x00001720       0xc4 .\CortexM3\ARM_GCC_493\Debug\Node-Beaver.a(CyLib.o)
                0x00001720                CyGetUniqueId
 .text.CAN_1_RxTxBuffersConfig
                0x000017e4       0x80 .\CortexM3\ARM_GCC_493\Debug\Node-Beaver.a(CAN_1.o)
                0x000017e4                CAN_1_RxTxBuffersConfig
 .text.CAN_1_Init
                0x00001864      0x128 .\CortexM3\ARM_GCC_493\Debug\Node-Beaver.a(CAN_1.o)
                0x00001864                CAN_1_Init
 .text.CAN_1_Enable
                0x0000198c       0xa4 .\CortexM3\ARM_GCC_493\Debug\Node-Beaver.a(CAN_1.o)
                0x0000198c                CAN_1_Enable
 .text.CAN_1_Start
                0x00001a30       0x3c .\CortexM3\ARM_GCC_493\Debug\Node-Beaver.a(CAN_1.o)
                0x00001a30                CAN_1_Start
 .text.CAN_1_GlobalIntEnable
                0x00001a6c       0x40 .\CortexM3\ARM_GCC_493\Debug\Node-Beaver.a(CAN_1.o)
                0x00001a6c                CAN_1_GlobalIntEnable
 .text.CAN_1_SetPreScaler
                0x00001aac       0x44 .\CortexM3\ARM_GCC_493\Debug\Node-Beaver.a(CAN_1.o)
                0x00001aac                CAN_1_SetPreScaler
 .text.CAN_1_SetArbiter
                0x00001af0       0x6c .\CortexM3\ARM_GCC_493\Debug\Node-Beaver.a(CAN_1.o)
                0x00001af0                CAN_1_SetArbiter
 .text.CAN_1_SetTsegSample
                0x00001b5c       0xd4 .\CortexM3\ARM_GCC_493\Debug\Node-Beaver.a(CAN_1.o)
                0x00001b5c                CAN_1_SetTsegSample
 .text.CAN_1_SetRestartType
                0x00001c30       0x6c .\CortexM3\ARM_GCC_493\Debug\Node-Beaver.a(CAN_1.o)
                0x00001c30                CAN_1_SetRestartType
 .text.CAN_1_SetEdgeMode
                0x00001c9c       0x6c .\CortexM3\ARM_GCC_493\Debug\Node-Beaver.a(CAN_1.o)
                0x00001c9c                CAN_1_SetEdgeMode
 .text.CAN_1_SetIrqMask
                0x00001d08       0x38 .\CortexM3\ARM_GCC_493\Debug\Node-Beaver.a(CAN_1.o)
                0x00001d08                CAN_1_SetIrqMask
 .text.CAN_1_RxBufConfig
                0x00001d40       0xec .\CortexM3\ARM_GCC_493\Debug\Node-Beaver.a(CAN_1.o)
                0x00001d40                CAN_1_RxBufConfig
 .text.CAN_1_TxBufConfig
                0x00001e2c       0x88 .\CortexM3\ARM_GCC_493\Debug\Node-Beaver.a(CAN_1.o)
                0x00001e2c                CAN_1_TxBufConfig
 .text.CAN_1_MsgRXIsr
                0x00001eb4       0x68 .\CortexM3\ARM_GCC_493\Debug\Node-Beaver.a(CAN_1_INT.o)
                0x00001eb4                CAN_1_MsgRXIsr
 .text.CAN_1_ISR
                0x00001f1c       0x1c .\CortexM3\ARM_GCC_493\Debug\Node-Beaver.a(CAN_1_INT.o)
                0x00001f1c                CAN_1_ISR
 .text.CAN_1_SendMsg
                0x00001f38      0x170 .\CortexM3\ARM_GCC_493\Debug\Node-Beaver.a(CAN_1_TX_RX_func.o)
                0x00001f38                CAN_1_SendMsg
 .text.CAN_1_ReceiveMsg
                0x000020a8       0xd8 .\CortexM3\ARM_GCC_493\Debug\Node-Beaver.a(CAN_1_TX_RX_func.o)
                0x000020a8                CAN_1_ReceiveMsg
 .text.LED_Write
                0x00002180       0x34 .\CortexM3\ARM_GCC_493\Debug\Node-Beaver.a(LED.o)
                0x00002180                LED_Write
 .text.USBUART_1_Start
                0x000021b4       0x38 .\CortexM3\ARM_GCC_493\Debug\Node-Beaver.a(USBUART_1.o)
                0x000021b4                USBUART_1_Start
 .text.USBUART_1_Init
                0x000021ec      0x1a0 .\CortexM3\ARM_GCC_493\Debug\Node-Beaver.a(USBUART_1.o)
                0x000021ec                USBUART_1_Init
 .text.USBUART_1_InitComponent
                0x0000238c      0x100 .\CortexM3\ARM_GCC_493\Debug\Node-Beaver.a(USBUART_1.o)
                0x0000238c                USBUART_1_InitComponent
 .text.USBUART_1_ReInitComponent
                0x0000248c       0x68 .\CortexM3\ARM_GCC_493\Debug\Node-Beaver.a(USBUART_1.o)
                0x0000248c                USBUART_1_ReInitComponent
 .text.USBUART_1_DispatchCDCClassRqst
                0x000024f4       0xe8 .\CortexM3\ARM_GCC_493\Debug\Node-Beaver.a(USBUART_1_cdc.o)
                0x000024f4                USBUART_1_DispatchCDCClassRqst
 .text.USBUART_1_GetInterfaceComPort
                0x000025dc       0x60 .\CortexM3\ARM_GCC_493\Debug\Node-Beaver.a(USBUART_1_cdc.o)
                0x000025dc                USBUART_1_GetInterfaceComPort
 .text.USBUART_1_Cdc_EpInit
                0x0000263c       0x94 .\CortexM3\ARM_GCC_493\Debug\Node-Beaver.a(USBUART_1_cdc.o)
                0x0000263c                USBUART_1_Cdc_EpInit
 .text.USBUART_1_EP_0_ISR
                0x000026d0       0xf8 .\CortexM3\ARM_GCC_493\Debug\Node-Beaver.a(USBUART_1_drv.o)
                0x000026d0                USBUART_1_EP_0_ISR
 .text.USBUART_1_HandleSetup
                0x000027c8       0x88 .\CortexM3\ARM_GCC_493\Debug\Node-Beaver.a(USBUART_1_drv.o)
                0x000027c8                USBUART_1_HandleSetup
 .text.USBUART_1_HandleIN
                0x00002850       0x4c .\CortexM3\ARM_GCC_493\Debug\Node-Beaver.a(USBUART_1_drv.o)
                0x00002850                USBUART_1_HandleIN
 .text.USBUART_1_HandleOUT
                0x0000289c       0x58 .\CortexM3\ARM_GCC_493\Debug\Node-Beaver.a(USBUART_1_drv.o)
                0x0000289c                USBUART_1_HandleOUT
 .text.USBUART_1_LoadEP0
                0x000028f4       0xd0 .\CortexM3\ARM_GCC_493\Debug\Node-Beaver.a(USBUART_1_drv.o)
                0x000028f4                USBUART_1_LoadEP0
 .text.USBUART_1_InitControlRead
                0x000029c4       0x70 .\CortexM3\ARM_GCC_493\Debug\Node-Beaver.a(USBUART_1_drv.o)
                0x000029c4                USBUART_1_InitControlRead
 .text.USBUART_1_InitZeroLengthControlTransfer
                0x00002a34       0x44 .\CortexM3\ARM_GCC_493\Debug\Node-Beaver.a(USBUART_1_drv.o)
                0x00002a34                USBUART_1_InitZeroLengthControlTransfer
 .text.USBUART_1_ControlReadDataStage
                0x00002a78        0xc .\CortexM3\ARM_GCC_493\Debug\Node-Beaver.a(USBUART_1_drv.o)
                0x00002a78                USBUART_1_ControlReadDataStage
 .text.USBUART_1_ControlReadStatusStage
                0x00002a84       0x40 .\CortexM3\ARM_GCC_493\Debug\Node-Beaver.a(USBUART_1_drv.o)
                0x00002a84                USBUART_1_ControlReadStatusStage
 .text.USBUART_1_InitControlWrite
                0x00002ac4       0x64 .\CortexM3\ARM_GCC_493\Debug\Node-Beaver.a(USBUART_1_drv.o)
                0x00002ac4                USBUART_1_InitControlWrite
 .text.USBUART_1_ControlWriteDataStage
                0x00002b28       0xb4 .\CortexM3\ARM_GCC_493\Debug\Node-Beaver.a(USBUART_1_drv.o)
                0x00002b28                USBUART_1_ControlWriteDataStage
 .text.USBUART_1_ControlWriteStatusStage
                0x00002bdc       0x20 .\CortexM3\ARM_GCC_493\Debug\Node-Beaver.a(USBUART_1_drv.o)
                0x00002bdc                USBUART_1_ControlWriteStatusStage
 .text.USBUART_1_InitNoDataControlTransfer
                0x00002bfc       0x38 .\CortexM3\ARM_GCC_493\Debug\Node-Beaver.a(USBUART_1_drv.o)
                0x00002bfc                USBUART_1_InitNoDataControlTransfer
 .text.USBUART_1_NoDataControlStatusStage
                0x00002c34       0x48 .\CortexM3\ARM_GCC_493\Debug\Node-Beaver.a(USBUART_1_drv.o)
                0x00002c34                USBUART_1_NoDataControlStatusStage
 .text.USBUART_1_UpdateStatusBlock
                0x00002c7c       0x40 .\CortexM3\ARM_GCC_493\Debug\Node-Beaver.a(USBUART_1_drv.o)
                0x00002c7c                USBUART_1_UpdateStatusBlock
 .text.USBUART_1_InitializeStatusBlock
                0x00002cbc       0x34 .\CortexM3\ARM_GCC_493\Debug\Node-Beaver.a(USBUART_1_drv.o)
                0x00002cbc                USBUART_1_InitializeStatusBlock
 .text.USBUART_1_EP_1_ISR
                0x00002cf0       0x48 .\CortexM3\ARM_GCC_493\Debug\Node-Beaver.a(USBUART_1_episr.o)
                0x00002cf0                USBUART_1_EP_1_ISR
 .text.USBUART_1_EP_2_ISR
                0x00002d38       0x4c .\CortexM3\ARM_GCC_493\Debug\Node-Beaver.a(USBUART_1_episr.o)
                0x00002d38                USBUART_1_EP_2_ISR
 .text.USBUART_1_EP_3_ISR
                0x00002d84       0x54 .\CortexM3\ARM_GCC_493\Debug\Node-Beaver.a(USBUART_1_episr.o)
                0x00002d84                USBUART_1_EP_3_ISR
 .text.USBUART_1_SOF_ISR
                0x00002dd8        0xc .\CortexM3\ARM_GCC_493\Debug\Node-Beaver.a(USBUART_1_episr.o)
                0x00002dd8                USBUART_1_SOF_ISR
 .text.USBUART_1_BUS_RESET_ISR
                0x00002de4        0xc .\CortexM3\ARM_GCC_493\Debug\Node-Beaver.a(USBUART_1_episr.o)
                0x00002de4                USBUART_1_BUS_RESET_ISR
 .text.USBUART_1_DP_ISR
                0x00002df0        0xc .\CortexM3\ARM_GCC_493\Debug\Node-Beaver.a(USBUART_1_pm.o)
                0x00002df0                USBUART_1_DP_ISR
 .text.USBUART_1_HandleStandardRqst
                0x00002dfc      0x48c .\CortexM3\ARM_GCC_493\Debug\Node-Beaver.a(USBUART_1_std.o)
                0x00002dfc                USBUART_1_HandleStandardRqst
 .text.USBUART_1_ReadDieID
                0x00003288       0xd4 .\CortexM3\ARM_GCC_493\Debug\Node-Beaver.a(USBUART_1_std.o)
                0x00003288                USBUART_1_ReadDieID
 .text.USBUART_1_ConfigReg
                0x0000335c      0x11c .\CortexM3\ARM_GCC_493\Debug\Node-Beaver.a(USBUART_1_std.o)
                0x0000335c                USBUART_1_ConfigReg
 .text.USBUART_1_Config
                0x00003478      0x394 .\CortexM3\ARM_GCC_493\Debug\Node-Beaver.a(USBUART_1_std.o)
                0x00003478                USBUART_1_Config
 .text.USBUART_1_ConfigAltChanged
                0x0000380c      0x23c .\CortexM3\ARM_GCC_493\Debug\Node-Beaver.a(USBUART_1_std.o)
                0x0000380c                USBUART_1_ConfigAltChanged
 .text.USBUART_1_GetConfigTablePtr
                0x00003a48       0x54 .\CortexM3\ARM_GCC_493\Debug\Node-Beaver.a(USBUART_1_std.o)
                0x00003a48                USBUART_1_GetConfigTablePtr
 .text.USBUART_1_GetDeviceTablePtr
                0x00003a9c       0x24 .\CortexM3\ARM_GCC_493\Debug\Node-Beaver.a(USBUART_1_std.o)
                0x00003a9c                USBUART_1_GetDeviceTablePtr
 .text.USBUART_1_GetInterfaceClassTablePtr
                0x00003ac0       0x4c .\CortexM3\ARM_GCC_493\Debug\Node-Beaver.a(USBUART_1_std.o)
                0x00003ac0                USBUART_1_GetInterfaceClassTablePtr
 .text.USBUART_1_SetEndpointHalt
                0x00003b0c       0xdc .\CortexM3\ARM_GCC_493\Debug\Node-Beaver.a(USBUART_1_std.o)
                0x00003b0c                USBUART_1_SetEndpointHalt
 .text.USBUART_1_ClearEndpointHalt
                0x00003be8      0x130 .\CortexM3\ARM_GCC_493\Debug\Node-Beaver.a(USBUART_1_std.o)
                0x00003be8                USBUART_1_ClearEndpointHalt
 .text.USBUART_1_ValidateAlternateSetting
                0x00003d18       0x70 .\CortexM3\ARM_GCC_493\Debug\Node-Beaver.a(USBUART_1_std.o)
                0x00003d18                USBUART_1_ValidateAlternateSetting
 .text.USBUART_1_HandleVendorRqst
                0x00003d88       0x54 .\CortexM3\ARM_GCC_493\Debug\Node-Beaver.a(USBUART_1_vnd.o)
                0x00003d88                USBUART_1_HandleVendorRqst
 .text.USBUART_1_Dp_ClearInterrupt
                0x00003ddc       0x20 .\CortexM3\ARM_GCC_493\Debug\Node-Beaver.a(USBUART_1_Dp.o)
                0x00003ddc                USBUART_1_Dp_ClearInterrupt
 .text.power_isr_StartEx
                0x00003dfc       0x24 .\CortexM3\ARM_GCC_493\Debug\Node-Beaver.a(power_isr.o)
                0x00003dfc                power_isr_StartEx
 .text.power_isr_SetVector
                0x00003e20       0x24 .\CortexM3\ARM_GCC_493\Debug\Node-Beaver.a(power_isr.o)
                0x00003e20                power_isr_SetVector
 .text.power_isr_SetPriority
                0x00003e44       0x24 .\CortexM3\ARM_GCC_493\Debug\Node-Beaver.a(power_isr.o)
                0x00003e44                power_isr_SetPriority
 .text.power_isr_Enable
                0x00003e68       0x18 .\CortexM3\ARM_GCC_493\Debug\Node-Beaver.a(power_isr.o)
                0x00003e68                power_isr_Enable
 .text.power_isr_Disable
                0x00003e80       0x18 .\CortexM3\ARM_GCC_493\Debug\Node-Beaver.a(power_isr.o)
                0x00003e80                power_isr_Disable
 .text.power_isr_ClearPending
                0x00003e98       0x18 .\CortexM3\ARM_GCC_493\Debug\Node-Beaver.a(power_isr.o)
                0x00003e98                power_isr_ClearPending
 .text.rtc_i2c_Init
                0x00003eb0       0x80 .\CortexM3\ARM_GCC_493\Debug\Node-Beaver.a(rtc_i2c.o)
                0x00003eb0                rtc_i2c_Init
 .text.rtc_i2c_Enable
                0x00003f30       0x44 .\CortexM3\ARM_GCC_493\Debug\Node-Beaver.a(rtc_i2c.o)
                0x00003f30                rtc_i2c_Enable
 .text.rtc_i2c_Start
                0x00003f74       0x2c .\CortexM3\ARM_GCC_493\Debug\Node-Beaver.a(rtc_i2c.o)
                0x00003f74                rtc_i2c_Start
 .text.rtc_i2c_ISR
                0x00003fa0      0x3ac .\CortexM3\ARM_GCC_493\Debug\Node-Beaver.a(rtc_i2c_INT.o)
                0x00003fa0                rtc_i2c_ISR
 .text.rtc_i2c_MasterSendStart
                0x0000434c       0xbc .\CortexM3\ARM_GCC_493\Debug\Node-Beaver.a(rtc_i2c_MASTER.o)
                0x0000434c                rtc_i2c_MasterSendStart
 .text.rtc_i2c_MasterSendStop
                0x00004408       0x58 .\CortexM3\ARM_GCC_493\Debug\Node-Beaver.a(rtc_i2c_MASTER.o)
                0x00004408                rtc_i2c_MasterSendStop
 .text.rtc_i2c_MasterWriteByte
                0x00004460       0x80 .\CortexM3\ARM_GCC_493\Debug\Node-Beaver.a(rtc_i2c_MASTER.o)
                0x00004460                rtc_i2c_MasterWriteByte
 .text.rtc_i2c_MasterReadByte
                0x000044e0       0x7c .\CortexM3\ARM_GCC_493\Debug\Node-Beaver.a(rtc_i2c_MASTER.o)
                0x000044e0                rtc_i2c_MasterReadByte
 .text.time_refresh_isr_StartEx
                0x0000455c       0x24 .\CortexM3\ARM_GCC_493\Debug\Node-Beaver.a(time_refresh_isr.o)
                0x0000455c                time_refresh_isr_StartEx
 .text.time_refresh_isr_SetVector
                0x00004580       0x24 .\CortexM3\ARM_GCC_493\Debug\Node-Beaver.a(time_refresh_isr.o)
                0x00004580                time_refresh_isr_SetVector
 .text.time_refresh_isr_SetPriority
                0x000045a4       0x24 .\CortexM3\ARM_GCC_493\Debug\Node-Beaver.a(time_refresh_isr.o)
                0x000045a4                time_refresh_isr_SetPriority
 .text.time_refresh_isr_Enable
                0x000045c8       0x18 .\CortexM3\ARM_GCC_493\Debug\Node-Beaver.a(time_refresh_isr.o)
                0x000045c8                time_refresh_isr_Enable
 .text.time_refresh_isr_Disable
                0x000045e0       0x18 .\CortexM3\ARM_GCC_493\Debug\Node-Beaver.a(time_refresh_isr.o)
                0x000045e0                time_refresh_isr_Disable
 .text.millis_timer_Init
                0x000045f8       0x4c .\CortexM3\ARM_GCC_493\Debug\Node-Beaver.a(millis_timer.o)
                0x000045f8                millis_timer_Init
 .text.millis_timer_Enable
                0x00004644       0x20 .\CortexM3\ARM_GCC_493\Debug\Node-Beaver.a(millis_timer.o)
                0x00004644                millis_timer_Enable
 .text.millis_timer_Start
                0x00004664       0x20 .\CortexM3\ARM_GCC_493\Debug\Node-Beaver.a(millis_timer.o)
                0x00004664                millis_timer_Start
 .text.millis_timer_SetInterruptMode
                0x00004684       0x20 .\CortexM3\ARM_GCC_493\Debug\Node-Beaver.a(millis_timer.o)
                0x00004684                millis_timer_SetInterruptMode
 .text.millis_timer_ReadStatusRegister
                0x000046a4       0x18 .\CortexM3\ARM_GCC_493\Debug\Node-Beaver.a(millis_timer.o)
                0x000046a4                millis_timer_ReadStatusRegister
 .text.millis_timer_WritePeriod
                0x000046bc       0x1c .\CortexM3\ARM_GCC_493\Debug\Node-Beaver.a(millis_timer.o)
                0x000046bc                millis_timer_WritePeriod
 .text.millis_timer_ReadCapture
                0x000046d8       0x18 .\CortexM3\ARM_GCC_493\Debug\Node-Beaver.a(millis_timer.o)
                0x000046d8                millis_timer_ReadCapture
 .text.millis_timer_WriteCounter
                0x000046f0       0x1c .\CortexM3\ARM_GCC_493\Debug\Node-Beaver.a(millis_timer.o)
                0x000046f0                millis_timer_WriteCounter
 .text.millis_timer_ReadCounter
                0x0000470c       0x20 .\CortexM3\ARM_GCC_493\Debug\Node-Beaver.a(millis_timer.o)
                0x0000470c                millis_timer_ReadCounter
 .text.millis_timer_ClearFIFO
                0x0000472c       0x1c .\CortexM3\ARM_GCC_493\Debug\Node-Beaver.a(millis_timer.o)
                0x0000472c                millis_timer_ClearFIFO
 .text.time_refresh_timer_Init
                0x00004748       0x4c .\CortexM3\ARM_GCC_493\Debug\Node-Beaver.a(time_refresh_timer.o)
                0x00004748                time_refresh_timer_Init
 .text.time_refresh_timer_Enable
                0x00004794       0x20 .\CortexM3\ARM_GCC_493\Debug\Node-Beaver.a(time_refresh_timer.o)
                0x00004794                time_refresh_timer_Enable
 .text.time_refresh_timer_Start
                0x000047b4       0x20 .\CortexM3\ARM_GCC_493\Debug\Node-Beaver.a(time_refresh_timer.o)
                0x000047b4                time_refresh_timer_Start
 .text.time_refresh_timer_SetInterruptMode
                0x000047d4       0x20 .\CortexM3\ARM_GCC_493\Debug\Node-Beaver.a(time_refresh_timer.o)
                0x000047d4                time_refresh_timer_SetInterruptMode
 .text.time_refresh_timer_ReadStatusRegister
                0x000047f4       0x18 .\CortexM3\ARM_GCC_493\Debug\Node-Beaver.a(time_refresh_timer.o)
                0x000047f4                time_refresh_timer_ReadStatusRegister
 .text.time_refresh_timer_WritePeriod
                0x0000480c       0x1c .\CortexM3\ARM_GCC_493\Debug\Node-Beaver.a(time_refresh_timer.o)
                0x0000480c                time_refresh_timer_WritePeriod
 .text.time_refresh_timer_ReadCapture
                0x00004828       0x1c .\CortexM3\ARM_GCC_493\Debug\Node-Beaver.a(time_refresh_timer.o)
                0x00004828                time_refresh_timer_ReadCapture
 .text.time_refresh_timer_WriteCounter
                0x00004844       0x1c .\CortexM3\ARM_GCC_493\Debug\Node-Beaver.a(time_refresh_timer.o)
                0x00004844                time_refresh_timer_WriteCounter
 .text.time_refresh_timer_ClearFIFO
                0x00004860       0x1c .\CortexM3\ARM_GCC_493\Debug\Node-Beaver.a(time_refresh_timer.o)
                0x00004860                time_refresh_timer_ClearFIFO
 .text.power_comp_Init
                0x0000487c       0x64 .\CortexM3\ARM_GCC_493\Debug\Node-Beaver.a(power_comp.o)
                0x0000487c                power_comp_Init
 .text.power_comp_Enable
                0x000048e0       0x34 .\CortexM3\ARM_GCC_493\Debug\Node-Beaver.a(power_comp.o)
                0x000048e0                power_comp_Enable
 .text.power_comp_Start
                0x00004914       0x20 .\CortexM3\ARM_GCC_493\Debug\Node-Beaver.a(power_comp.o)
                0x00004914                power_comp_Start
 .text.power_comp_SetSpeed
                0x00004934       0x80 .\CortexM3\ARM_GCC_493\Debug\Node-Beaver.a(power_comp.o)
                0x00004934                power_comp_SetSpeed
 .text.xbee_UART_Start
                0x000049b4       0x20 .\CortexM3\ARM_GCC_493\Debug\Node-Beaver.a(xbee_UART.o)
                0x000049b4                xbee_UART_Start
 .text.xbee_UART_Init
                0x000049d4       0x58 .\CortexM3\ARM_GCC_493\Debug\Node-Beaver.a(xbee_UART.o)
                0x000049d4                xbee_UART_Init
 .text.xbee_UART_Enable
                0x00004a2c       0x68 .\CortexM3\ARM_GCC_493\Debug\Node-Beaver.a(xbee_UART.o)
                0x00004a2c                xbee_UART_Enable
 .text.xbee_UART_PutChar
                0x00004a94       0x34 .\CortexM3\ARM_GCC_493\Debug\Node-Beaver.a(xbee_UART.o)
                0x00004a94                xbee_UART_PutChar
 .text.xbee_UART_PutArray
                0x00004ac8       0x40 .\CortexM3\ARM_GCC_493\Debug\Node-Beaver.a(xbee_UART.o)
                0x00004ac8                xbee_UART_PutArray
 .text.xbee_UART_RXISR
                0x00004b08       0xd8 .\CortexM3\ARM_GCC_493\Debug\Node-Beaver.a(xbee_UART_INT.o)
                0x00004b08                xbee_UART_RXISR
 .text.xbee_UART_IntClock_Start
                0x00004be0       0x34 .\CortexM3\ARM_GCC_493\Debug\Node-Beaver.a(xbee_UART_IntClock.o)
                0x00004be0                xbee_UART_IntClock_Start
 .text.sd_timer_Init
                0x00004c14       0x4c .\CortexM3\ARM_GCC_493\Debug\Node-Beaver.a(sd_timer.o)
                0x00004c14                sd_timer_Init
 .text.sd_timer_Enable
                0x00004c60       0x20 .\CortexM3\ARM_GCC_493\Debug\Node-Beaver.a(sd_timer.o)
                0x00004c60                sd_timer_Enable
 .text.sd_timer_Start
                0x00004c80       0x20 .\CortexM3\ARM_GCC_493\Debug\Node-Beaver.a(sd_timer.o)
                0x00004c80                sd_timer_Start
 .text.sd_timer_SetInterruptMode
                0x00004ca0       0x20 .\CortexM3\ARM_GCC_493\Debug\Node-Beaver.a(sd_timer.o)
                0x00004ca0                sd_timer_SetInterruptMode
 .text.sd_timer_ReadStatusRegister
                0x00004cc0       0x18 .\CortexM3\ARM_GCC_493\Debug\Node-Beaver.a(sd_timer.o)
                0x00004cc0                sd_timer_ReadStatusRegister
 .text.sd_timer_WritePeriod
                0x00004cd8       0x1c .\CortexM3\ARM_GCC_493\Debug\Node-Beaver.a(sd_timer.o)
                0x00004cd8                sd_timer_WritePeriod
 .text.sd_timer_ReadCapture
                0x00004cf4       0x1c .\CortexM3\ARM_GCC_493\Debug\Node-Beaver.a(sd_timer.o)
                0x00004cf4                sd_timer_ReadCapture
 .text.sd_timer_WriteCounter
                0x00004d10       0x1c .\CortexM3\ARM_GCC_493\Debug\Node-Beaver.a(sd_timer.o)
                0x00004d10                sd_timer_WriteCounter
 .text.sd_timer_ClearFIFO
                0x00004d2c       0x1c .\CortexM3\ARM_GCC_493\Debug\Node-Beaver.a(sd_timer.o)
                0x00004d2c                sd_timer_ClearFIFO
 .text.sd_isr_StartEx
                0x00004d48       0x24 .\CortexM3\ARM_GCC_493\Debug\Node-Beaver.a(sd_isr.o)
                0x00004d48                sd_isr_StartEx
 .text.sd_isr_SetVector
                0x00004d6c       0x24 .\CortexM3\ARM_GCC_493\Debug\Node-Beaver.a(sd_isr.o)
                0x00004d6c                sd_isr_SetVector
 .text.sd_isr_SetPriority
                0x00004d90       0x24 .\CortexM3\ARM_GCC_493\Debug\Node-Beaver.a(sd_isr.o)
                0x00004d90                sd_isr_SetPriority
 .text.sd_isr_Enable
                0x00004db4       0x18 .\CortexM3\ARM_GCC_493\Debug\Node-Beaver.a(sd_isr.o)
                0x00004db4                sd_isr_Enable
 .text.sd_isr_Disable
                0x00004dcc       0x18 .\CortexM3\ARM_GCC_493\Debug\Node-Beaver.a(sd_isr.o)
                0x00004dcc                sd_isr_Disable
 .text.car_state_isr_StartEx
                0x00004de4       0x24 .\CortexM3\ARM_GCC_493\Debug\Node-Beaver.a(car_state_isr.o)
                0x00004de4                car_state_isr_StartEx
 .text.car_state_isr_SetVector
                0x00004e08       0x24 .\CortexM3\ARM_GCC_493\Debug\Node-Beaver.a(car_state_isr.o)
                0x00004e08                car_state_isr_SetVector
 .text.car_state_isr_SetPriority
                0x00004e2c       0x24 .\CortexM3\ARM_GCC_493\Debug\Node-Beaver.a(car_state_isr.o)
                0x00004e2c                car_state_isr_SetPriority
 .text.car_state_isr_Enable
                0x00004e50       0x18 .\CortexM3\ARM_GCC_493\Debug\Node-Beaver.a(car_state_isr.o)
                0x00004e50                car_state_isr_Enable
 .text.car_state_isr_Disable
                0x00004e68       0x18 .\CortexM3\ARM_GCC_493\Debug\Node-Beaver.a(car_state_isr.o)
                0x00004e68                car_state_isr_Disable
 .text.car_state_timer_Init
                0x00004e80       0x4c .\CortexM3\ARM_GCC_493\Debug\Node-Beaver.a(car_state_timer.o)
                0x00004e80                car_state_timer_Init
 .text.car_state_timer_Enable
                0x00004ecc       0x20 .\CortexM3\ARM_GCC_493\Debug\Node-Beaver.a(car_state_timer.o)
                0x00004ecc                car_state_timer_Enable
 .text.car_state_timer_Start
                0x00004eec       0x20 .\CortexM3\ARM_GCC_493\Debug\Node-Beaver.a(car_state_timer.o)
                0x00004eec                car_state_timer_Start
 .text.car_state_timer_SetInterruptMode
                0x00004f0c       0x20 .\CortexM3\ARM_GCC_493\Debug\Node-Beaver.a(car_state_timer.o)
                0x00004f0c                car_state_timer_SetInterruptMode
 .text.car_state_timer_ReadStatusRegister
                0x00004f2c       0x18 .\CortexM3\ARM_GCC_493\Debug\Node-Beaver.a(car_state_timer.o)
                0x00004f2c                car_state_timer_ReadStatusRegister
 .text.car_state_timer_WritePeriod
                0x00004f44       0x20 .\CortexM3\ARM_GCC_493\Debug\Node-Beaver.a(car_state_timer.o)
                0x00004f44                car_state_timer_WritePeriod
 .text.car_state_timer_ReadCapture
                0x00004f64       0x18 .\CortexM3\ARM_GCC_493\Debug\Node-Beaver.a(car_state_timer.o)
                0x00004f64                car_state_timer_ReadCapture
 .text.car_state_timer_WriteCounter
                0x00004f7c       0x20 .\CortexM3\ARM_GCC_493\Debug\Node-Beaver.a(car_state_timer.o)
                0x00004f7c                car_state_timer_WriteCounter
 .text.car_state_timer_ClearFIFO
                0x00004f9c       0x1c .\CortexM3\ARM_GCC_493\Debug\Node-Beaver.a(car_state_timer.o)
                0x00004f9c                car_state_timer_ClearFIFO
 .text.heartbeat_timer_Init
                0x00004fb8       0x4c .\CortexM3\ARM_GCC_493\Debug\Node-Beaver.a(heartbeat_timer.o)
                0x00004fb8                heartbeat_timer_Init
 .text.heartbeat_timer_Enable
                0x00005004       0x20 .\CortexM3\ARM_GCC_493\Debug\Node-Beaver.a(heartbeat_timer.o)
                0x00005004                heartbeat_timer_Enable
 .text.heartbeat_timer_Start
                0x00005024       0x20 .\CortexM3\ARM_GCC_493\Debug\Node-Beaver.a(heartbeat_timer.o)
                0x00005024                heartbeat_timer_Start
 .text.heartbeat_timer_SetInterruptMode
                0x00005044       0x20 .\CortexM3\ARM_GCC_493\Debug\Node-Beaver.a(heartbeat_timer.o)
                0x00005044                heartbeat_timer_SetInterruptMode
 .text.heartbeat_timer_ReadStatusRegister
                0x00005064       0x18 .\CortexM3\ARM_GCC_493\Debug\Node-Beaver.a(heartbeat_timer.o)
                0x00005064                heartbeat_timer_ReadStatusRegister
 .text.heartbeat_timer_WritePeriod
                0x0000507c       0x1c .\CortexM3\ARM_GCC_493\Debug\Node-Beaver.a(heartbeat_timer.o)
                0x0000507c                heartbeat_timer_WritePeriod
 .text.heartbeat_timer_ReadCapture
                0x00005098       0x18 .\CortexM3\ARM_GCC_493\Debug\Node-Beaver.a(heartbeat_timer.o)
                0x00005098                heartbeat_timer_ReadCapture
 .text.heartbeat_timer_WriteCounter
                0x000050b0       0x1c .\CortexM3\ARM_GCC_493\Debug\Node-Beaver.a(heartbeat_timer.o)
                0x000050b0                heartbeat_timer_WriteCounter
 .text.heartbeat_timer_ClearFIFO
                0x000050cc       0x1c .\CortexM3\ARM_GCC_493\Debug\Node-Beaver.a(heartbeat_timer.o)
                0x000050cc                heartbeat_timer_ClearFIFO
 .text.heartbeat_isr_StartEx
                0x000050e8       0x24 .\CortexM3\ARM_GCC_493\Debug\Node-Beaver.a(heartbeat_isr.o)
                0x000050e8                heartbeat_isr_StartEx
 .text.heartbeat_isr_SetVector
                0x0000510c       0x24 .\CortexM3\ARM_GCC_493\Debug\Node-Beaver.a(heartbeat_isr.o)
                0x0000510c                heartbeat_isr_SetVector
 .text.heartbeat_isr_SetPriority
                0x00005130       0x24 .\CortexM3\ARM_GCC_493\Debug\Node-Beaver.a(heartbeat_isr.o)
                0x00005130                heartbeat_isr_SetPriority
 .text.heartbeat_isr_Enable
                0x00005154       0x18 .\CortexM3\ARM_GCC_493\Debug\Node-Beaver.a(heartbeat_isr.o)
                0x00005154                heartbeat_isr_Enable
 .text.heartbeat_isr_Disable
                0x0000516c       0x18 .\CortexM3\ARM_GCC_493\Debug\Node-Beaver.a(heartbeat_isr.o)
                0x0000516c                heartbeat_isr_Disable
 *fill*         0x00005184        0x4 
 .text          0x00005188       0x20 .\CortexM3\ARM_GCC_493\Debug\Node-Beaver.a(CyBootAsmGnu.o)
                0x00005188                CyDelayCycles
                0x00005198                CyEnterCriticalSection
                0x000051a0                CyExitCriticalSection
 .text.CySetReg24
                0x000051a8       0x38 .\CortexM3\ARM_GCC_493\Debug\Node-Beaver.a(cyutils.o)
                0x000051a8                CySetReg24
 .text.USBUART_1_DispatchClassRqst
                0x000051e0       0x7c .\CortexM3\ARM_GCC_493\Debug\Node-Beaver.a(USBUART_1_cls.o)
                0x000051e0                USBUART_1_DispatchClassRqst
 .text.FS__SD_Format
                0x0000525c      0x26c .\emFile_V322c\LinkLibrary\PSoC5\GCC\libemf16noslfn.a(FAT_FormatSD.o)
                0x0000525c                FS__SD_Format
 .text.FS_FormatSD
                0x000054c8       0x10 .\emFile_V322c\LinkLibrary\PSoC5\GCC\libemf16noslfn.a(FAT_FormatSD.o)
                0x000054c8                FS_FormatSD
 .text._CopyString
                0x000054d8       0x1c .\emFile_V322c\LinkLibrary\PSoC5\GCC\libemf16noslfn.a(FAT_LFN.o)
 .text._CalcNumChar
                0x000054f4       0x1e .\emFile_V322c\LinkLibrary\PSoC5\GCC\libemf16noslfn.a(FAT_LFN.o)
 .text._WriteName
                0x00005512       0x32 .\emFile_V322c\LinkLibrary\PSoC5\GCC\libemf16noslfn.a(FAT_LFN.o)
 .text._ToUpper
                0x00005544       0x10 .\emFile_V322c\LinkLibrary\PSoC5\GCC\libemf16noslfn.a(FAT_LFN.o)
 .text._CompareChar
                0x00005554       0x44 .\emFile_V322c\LinkLibrary\PSoC5\GCC\libemf16noslfn.a(FAT_LFN.o)
 .text._CalcCheckSum
                0x00005598       0x24 .\emFile_V322c\LinkLibrary\PSoC5\GCC\libemf16noslfn.a(FAT_LFN.o)
 .text._SetDirPosIndex
                0x000055bc        0x8 .\emFile_V322c\LinkLibrary\PSoC5\GCC\libemf16noslfn.a(FAT_LFN.o)
 .text.FS_FAT_SupportLFN
                0x000055c4       0x10 .\emFile_V322c\LinkLibrary\PSoC5\GCC\libemf16noslfn.a(FAT_LFN.o)
                0x000055c4                FS_FAT_SupportLFN
 .text._LFN_DelLongEntry
                0x000055d4       0x5e .\emFile_V322c\LinkLibrary\PSoC5\GCC\libemf16noslfn.a(FAT_LFN.o)
 .text._CorrectTrail
                0x00005632       0x28 .\emFile_V322c\LinkLibrary\PSoC5\GCC\libemf16noslfn.a(FAT_LFN.o)
 .text._CalcNumLongEntries
                0x0000565a       0x16 .\emFile_V322c\LinkLibrary\PSoC5\GCC\libemf16noslfn.a(FAT_LFN.o)
 .text._ComputeLongDirEntry
                0x00005670       0x88 .\emFile_V322c\LinkLibrary\PSoC5\GCC\libemf16noslfn.a(FAT_LFN.o)
 .text._LFN_FindDirEntry
                0x000056f8      0x146 .\emFile_V322c\LinkLibrary\PSoC5\GCC\libemf16noslfn.a(FAT_LFN.o)
 .text._GenerateShortEntry
                0x0000583e       0xce .\emFile_V322c\LinkLibrary\PSoC5\GCC\libemf16noslfn.a(FAT_LFN.o)
 .text._LFN_ReadDirEntryInfo
                0x0000590c      0x1c6 .\emFile_V322c\LinkLibrary\PSoC5\GCC\libemf16noslfn.a(FAT_LFN.o)
 .text._LFN_CreateDirEntry
                0x00005ad2      0x2a4 .\emFile_V322c\LinkLibrary\PSoC5\GCC\libemf16noslfn.a(FAT_LFN.o)
 .text._ClusterId2FATOff
                0x00005d76       0x18 .\emFile_V322c\LinkLibrary\PSoC5\GCC\libemf16noslfn.a(FAT_Misc.o)
 .text._CalcLogClusterPos
                0x00005d8e        0xe .\emFile_V322c\LinkLibrary\PSoC5\GCC\libemf16noslfn.a(FAT_Misc.o)
 .text._ReadFromFreeClusterCache
                0x00005d9c       0x46 .\emFile_V322c\LinkLibrary\PSoC5\GCC\libemf16noslfn.a(FAT_Misc.o)
 .text.FS_FAT_GetFATType
                0x00005de2       0x1a .\emFile_V322c\LinkLibrary\PSoC5\GCC\libemf16noslfn.a(FAT_Misc.o)
                0x00005de2                FS_FAT_GetFATType
 .text.FS_FAT_ClusterId2SectorNo
                0x00005dfc        0xc .\emFile_V322c\LinkLibrary\PSoC5\GCC\libemf16noslfn.a(FAT_Misc.o)
                0x00005dfc                FS_FAT_ClusterId2SectorNo
 .text.FS_FAT_IsValidShortNameChar
                0x00005e08       0x34 .\emFile_V322c\LinkLibrary\PSoC5\GCC\libemf16noslfn.a(FAT_Misc.o)
                0x00005e08                FS_FAT_IsValidShortNameChar
 .text.FS_FAT_CopyShortName
                0x00005e3c       0x56 .\emFile_V322c\LinkLibrary\PSoC5\GCC\libemf16noslfn.a(FAT_Misc.o)
                0x00005e3c                FS_FAT_CopyShortName
 .text._SFN_CreateDirEntry
                0x00005e92       0x5a .\emFile_V322c\LinkLibrary\PSoC5\GCC\libemf16noslfn.a(FAT_Misc.o)
 .text._SFN_FindDirEntry
                0x00005eec       0x10 .\emFile_V322c\LinkLibrary\PSoC5\GCC\libemf16noslfn.a(FAT_Misc.o)
 .text.FS_FAT_FindDirEntry
                0x00005efc       0x60 .\emFile_V322c\LinkLibrary\PSoC5\GCC\libemf16noslfn.a(FAT_Misc.o)
                0x00005efc                FS_FAT_FindDirEntry
 .text.FS_FAT_CopyDirEntryInfo
                0x00005f5c       0x50 .\emFile_V322c\LinkLibrary\PSoC5\GCC\libemf16noslfn.a(FAT_Misc.o)
                0x00005f5c                FS_FAT_CopyDirEntryInfo
 .text._SFN_ReadDirEntryInfo
                0x00005fac       0x6e .\emFile_V322c\LinkLibrary\PSoC5\GCC\libemf16noslfn.a(FAT_Misc.o)
 .text._SetFATSector
                0x0000601a        0x6 .\emFile_V322c\LinkLibrary\PSoC5\GCC\libemf16noslfn.a(FAT_Misc.o)
 .text._WriteFATEntry
                0x00006020      0x152 .\emFile_V322c\LinkLibrary\PSoC5\GCC\libemf16noslfn.a(FAT_Misc.o)
 .text.FS_FAT_MarkClusterEOC
                0x00006172        0x8 .\emFile_V322c\LinkLibrary\PSoC5\GCC\libemf16noslfn.a(FAT_Misc.o)
                0x00006172                FS_FAT_MarkClusterEOC
 .text.FS_FAT_SyncFAT
                0x0000617a       0x3c .\emFile_V322c\LinkLibrary\PSoC5\GCC\libemf16noslfn.a(FAT_Misc.o)
                0x0000617a                FS_FAT_SyncFAT
 .text.FS_FAT_LinkCluster
                0x000061b6       0x1c .\emFile_V322c\LinkLibrary\PSoC5\GCC\libemf16noslfn.a(FAT_Misc.o)
                0x000061b6                FS_FAT_LinkCluster
 .text.FS_FAT_ReadFATEntry
                0x000061d2       0xb2 .\emFile_V322c\LinkLibrary\PSoC5\GCC\libemf16noslfn.a(FAT_Misc.o)
                0x000061d2                FS_FAT_ReadFATEntry
 .text.FS_FAT_GetNumAdjClustersInChain
                0x00006284       0x64 .\emFile_V322c\LinkLibrary\PSoC5\GCC\libemf16noslfn.a(FAT_Misc.o)
                0x00006284                FS_FAT_GetNumAdjClustersInChain
 .text.FS_FAT_WalkClusterEx
                0x000062e8       0x5c .\emFile_V322c\LinkLibrary\PSoC5\GCC\libemf16noslfn.a(FAT_Misc.o)
                0x000062e8                FS_FAT_WalkClusterEx
 .text.FS_FAT_GotoCluster
                0x00006344       0x88 .\emFile_V322c\LinkLibrary\PSoC5\GCC\libemf16noslfn.a(FAT_Misc.o)
                0x00006344                FS_FAT_GotoCluster
 .text.FS_FAT_WalkCluster
                0x000063cc       0x18 .\emFile_V322c\LinkLibrary\PSoC5\GCC\libemf16noslfn.a(FAT_Misc.o)
                0x000063cc                FS_FAT_WalkCluster
 .text.FS_FAT_FindLastCluster
                0x000063e4       0x34 .\emFile_V322c\LinkLibrary\PSoC5\GCC\libemf16noslfn.a(FAT_Misc.o)
                0x000063e4                FS_FAT_FindLastCluster
 .text._CalcFreeClusterCnt
                0x00006418       0x88 .\emFile_V322c\LinkLibrary\PSoC5\GCC\libemf16noslfn.a(FAT_Misc.o)
 .text.FS_FAT_FindFreeCluster
                0x000064a0       0xa8 .\emFile_V322c\LinkLibrary\PSoC5\GCC\libemf16noslfn.a(FAT_Misc.o)
                0x000064a0                FS_FAT_FindFreeCluster
 .text.FS_FAT_AllocCluster
                0x00006548       0x20 .\emFile_V322c\LinkLibrary\PSoC5\GCC\libemf16noslfn.a(FAT_Misc.o)
                0x00006548                FS_FAT_AllocCluster
 .text._WriteEmptyFATSectors
                0x00006568       0x3c .\emFile_V322c\LinkLibrary\PSoC5\GCC\libemf16noslfn.a(FAT_Misc.o)
 .text.FS_FAT_FreeClusterChain
                0x000065a4       0xe0 .\emFile_V322c\LinkLibrary\PSoC5\GCC\libemf16noslfn.a(FAT_Misc.o)
                0x000065a4                FS_FAT_FreeClusterChain
 .text.FS_FAT_CheckBPB
                0x00006684      0x14c .\emFile_V322c\LinkLibrary\PSoC5\GCC\libemf16noslfn.a(FAT_Misc.o)
                0x00006684                FS_FAT_CheckBPB
 .text.FS_FAT_InitDirEntryScan
                0x000067d0       0x14 .\emFile_V322c\LinkLibrary\PSoC5\GCC\libemf16noslfn.a(FAT_Open.o)
                0x000067d0                FS_FAT_InitDirEntryScan
 .text.FS_FAT_IncDirPos
                0x000067e4        0x8 .\emFile_V322c\LinkLibrary\PSoC5\GCC\libemf16noslfn.a(FAT_Open.o)
                0x000067e4                FS_FAT_IncDirPos
 .text._CopyDirText
                0x000067ec       0x44 .\emFile_V322c\LinkLibrary\PSoC5\GCC\libemf16noslfn.a(FAT_Open.o)
 .text.FS_FAT_Make83Name
                0x00006830       0xb0 .\emFile_V322c\LinkLibrary\PSoC5\GCC\libemf16noslfn.a(FAT_Open.o)
                0x00006830                FS_FAT_Make83Name
 .text.FS_FAT_GetDirEntry
                0x000068e0       0xb2 .\emFile_V322c\LinkLibrary\PSoC5\GCC\libemf16noslfn.a(FAT_Open.o)
                0x000068e0                FS_FAT_GetDirEntry
 .text.FS_FAT_FindDirEntryShortEx
                0x00006992       0x5a .\emFile_V322c\LinkLibrary\PSoC5\GCC\libemf16noslfn.a(FAT_Open.o)
                0x00006992                FS_FAT_FindDirEntryShortEx
 .text.FS_FAT_FindDirEntryShort
                0x000069ec       0x36 .\emFile_V322c\LinkLibrary\PSoC5\GCC\libemf16noslfn.a(FAT_Open.o)
                0x000069ec                FS_FAT_FindDirEntryShort
 .text.FS_FAT_FindEmptyDirEntry
                0x00006a22       0xb0 .\emFile_V322c\LinkLibrary\PSoC5\GCC\libemf16noslfn.a(FAT_Open.o)
                0x00006a22                FS_FAT_FindEmptyDirEntry
 .text.FS_FAT_GetFirstCluster
                0x00006ad2       0x1a .\emFile_V322c\LinkLibrary\PSoC5\GCC\libemf16noslfn.a(FAT_Open.o)
                0x00006ad2                FS_FAT_GetFirstCluster
 .text.FS_FAT_FindPath
                0x00006aec       0x7a .\emFile_V322c\LinkLibrary\PSoC5\GCC\libemf16noslfn.a(FAT_Open.o)
                0x00006aec                FS_FAT_FindPath
 .text.FS_FAT_DeleteFileOrDir
                0x00006b66       0x48 .\emFile_V322c\LinkLibrary\PSoC5\GCC\libemf16noslfn.a(FAT_Open.o)
                0x00006b66                FS_FAT_DeleteFileOrDir
 *fill*         0x00006bae        0x2 
 .text.FS_FAT_Open
                0x00006bb0      0x1dc .\emFile_V322c\LinkLibrary\PSoC5\GCC\libemf16noslfn.a(FAT_Open.o)
                0x00006bb0                FS_FAT_Open
 .text.FS_FAT_WriteDirEntryCluster
                0x00006d8c       0x1c .\emFile_V322c\LinkLibrary\PSoC5\GCC\libemf16noslfn.a(FAT_Open.o)
                0x00006d8c                FS_FAT_WriteDirEntryCluster
 .text.FS_FAT_WriteDirEntry83
                0x00006da8       0x6c .\emFile_V322c\LinkLibrary\PSoC5\GCC\libemf16noslfn.a(FAT_Open.o)
                0x00006da8                FS_FAT_WriteDirEntry83
 .text.FS_FAT_Clean
                0x00006e14        0x2 .\emFile_V322c\LinkLibrary\PSoC5\GCC\libemf16noslfn.a(FAT_Write.o)
                0x00006e14                FS_FAT_Clean
 .text._WriteBurst
                0x00006e16       0x24 .\emFile_V322c\LinkLibrary\PSoC5\GCC\libemf16noslfn.a(FAT_Write.o)
 *fill*         0x00006e3a        0x2 
 .text.FS_FAT_GotoClusterAllocIfReq
                0x00006e3c       0xa8 .\emFile_V322c\LinkLibrary\PSoC5\GCC\libemf16noslfn.a(FAT_Write.o)
                0x00006e3c                FS_FAT_GotoClusterAllocIfReq
 .text.FS_FAT_UpdateDirEntry
                0x00006ee4       0x68 .\emFile_V322c\LinkLibrary\PSoC5\GCC\libemf16noslfn.a(FAT_Write.o)
                0x00006ee4                FS_FAT_UpdateDirEntry
 .text.FS_FAT_Close
                0x00006f4c       0x44 .\emFile_V322c\LinkLibrary\PSoC5\GCC\libemf16noslfn.a(FAT_Write.o)
                0x00006f4c                FS_FAT_Close
 .text.FS_FAT_Write
                0x00006f90      0x1c8 .\emFile_V322c\LinkLibrary\PSoC5\GCC\libemf16noslfn.a(FAT_Write.o)
                0x00006f90                FS_FAT_Write
 .text.FS__GetFileAttributes
                0x00007158       0x38 .\emFile_V322c\LinkLibrary\PSoC5\GCC\libemf16noslfn.a(FS_Attrib.o)
                0x00007158                FS__GetFileAttributes
 .text.FS_GetFileAttributes
                0x00007190        0x4 .\emFile_V322c\LinkLibrary\PSoC5\GCC\libemf16noslfn.a(FS_Attrib.o)
                0x00007190                FS_GetFileAttributes
 .text.FS__CLIB_memcmp
                0x00007194       0x20 .\emFile_V322c\LinkLibrary\PSoC5\GCC\libemf16noslfn.a(FS_CLib.o)
                0x00007194                FS__CLIB_memcmp
 .text.FS__CLIB_memset
                0x000071b4       0x6c .\emFile_V322c\LinkLibrary\PSoC5\GCC\libemf16noslfn.a(FS_CLib.o)
                0x000071b4                FS__CLIB_memset
 .text.FS__CLIB_strcmp
                0x00007220       0x1a .\emFile_V322c\LinkLibrary\PSoC5\GCC\libemf16noslfn.a(FS_CLib.o)
                0x00007220                FS__CLIB_strcmp
 .text.FS__CLIB_strlen
                0x0000723a       0x10 .\emFile_V322c\LinkLibrary\PSoC5\GCC\libemf16noslfn.a(FS_CLib.o)
                0x0000723a                FS__CLIB_strlen
 .text.FS__CLIB_strncmp
                0x0000724a       0x26 .\emFile_V322c\LinkLibrary\PSoC5\GCC\libemf16noslfn.a(FS_CLib.o)
                0x0000724a                FS__CLIB_strncmp
 .text.FS__CLIB_strncpy
                0x00007270       0x2e .\emFile_V322c\LinkLibrary\PSoC5\GCC\libemf16noslfn.a(FS_CLib.o)
                0x00007270                FS__CLIB_strncpy
 .text.FS__CLIB_toupper
                0x0000729e        0xe .\emFile_V322c\LinkLibrary\PSoC5\GCC\libemf16noslfn.a(FS_CLib.o)
                0x0000729e                FS__CLIB_toupper
 .text.FS__DivideU32Up
                0x000072ac        0xa .\emFile_V322c\LinkLibrary\PSoC5\GCC\libemf16noslfn.a(FS_Core.o)
                0x000072ac                FS__DivideU32Up
 .text.FS__strchr
                0x000072b6       0x14 .\emFile_V322c\LinkLibrary\PSoC5\GCC\libemf16noslfn.a(FS_Core.o)
                0x000072b6                FS__strchr
 .text.FS_LoadU32BE
                0x000072ca       0x18 .\emFile_V322c\LinkLibrary\PSoC5\GCC\libemf16noslfn.a(FS_Core.o)
                0x000072ca                FS_LoadU32BE
 .text.FS_LoadU32LE
                0x000072e2       0x16 .\emFile_V322c\LinkLibrary\PSoC5\GCC\libemf16noslfn.a(FS_Core.o)
                0x000072e2                FS_LoadU32LE
 .text.FS_StoreU32LE
                0x000072f8       0x14 .\emFile_V322c\LinkLibrary\PSoC5\GCC\libemf16noslfn.a(FS_Core.o)
                0x000072f8                FS_StoreU32LE
 .text.FS_StoreU16LE
                0x0000730c        0x8 .\emFile_V322c\LinkLibrary\PSoC5\GCC\libemf16noslfn.a(FS_Core.o)
                0x0000730c                FS_StoreU16LE
 .text.FS_LoadU16LE
                0x00007314        0xa .\emFile_V322c\LinkLibrary\PSoC5\GCC\libemf16noslfn.a(FS_Core.o)
                0x00007314                FS_LoadU16LE
 *fill*         0x0000731e        0x2 
 .text._Alloc   0x00007320       0x30 .\emFile_V322c\LinkLibrary\PSoC5\GCC\libemf16noslfn.a(FS_Core.o)
 .text.FS_Alloc
                0x00007350        0xc .\emFile_V322c\LinkLibrary\PSoC5\GCC\libemf16noslfn.a(FS_Core.o)
                0x00007350                FS_Alloc
 .text.FS_TryAlloc
                0x0000735c        0x4 .\emFile_V322c\LinkLibrary\PSoC5\GCC\libemf16noslfn.a(FS_Core.o)
                0x0000735c                FS_TryAlloc
 .text.FS_Free  0x00007360       0x1c .\emFile_V322c\LinkLibrary\PSoC5\GCC\libemf16noslfn.a(FS_Core.o)
                0x00007360                FS_Free
 .text.FS_AssignMemory
                0x0000737c        0xc .\emFile_V322c\LinkLibrary\PSoC5\GCC\libemf16noslfn.a(FS_Core.o)
                0x0000737c                FS_AssignMemory
 .text.FS_AllocZeroed
                0x00007388       0x16 .\emFile_V322c\LinkLibrary\PSoC5\GCC\libemf16noslfn.a(FS_Core.o)
                0x00007388                FS_AllocZeroed
 *fill*         0x0000739e        0x2 
 .text.FS_STORAGE_Init
                0x000073a0       0x28 .\emFile_V322c\LinkLibrary\PSoC5\GCC\libemf16noslfn.a(FS_Core.o)
                0x000073a0                FS_STORAGE_Init
 .text.FS__MkDir
                0x000073c8       0x24 .\emFile_V322c\LinkLibrary\PSoC5\GCC\libemf16noslfn.a(FS_Dir.o)
                0x000073c8                FS__MkDir
 .text.FS_MkDir
                0x000073ec        0x4 .\emFile_V322c\LinkLibrary\PSoC5\GCC\libemf16noslfn.a(FS_Dir.o)
                0x000073ec                FS_MkDir
 .text._ClrBusyLED
                0x000073f0        0xc .\emFile_V322c\LinkLibrary\PSoC5\GCC\libemf16noslfn.a(FS_LogBlock.o)
 .text._SetBusyLED
                0x000073fc        0xc .\emFile_V322c\LinkLibrary\PSoC5\GCC\libemf16noslfn.a(FS_LogBlock.o)
 .text._Read    0x00007408        0xc .\emFile_V322c\LinkLibrary\PSoC5\GCC\libemf16noslfn.a(FS_LogBlock.o)
 .text._Write   0x00007414       0x12 .\emFile_V322c\LinkLibrary\PSoC5\GCC\libemf16noslfn.a(FS_LogBlock.o)
 .text.FS_LB_GetStatus
                0x00007426        0xc .\emFile_V322c\LinkLibrary\PSoC5\GCC\libemf16noslfn.a(FS_LogBlock.o)
                0x00007426                FS_LB_GetStatus
 .text.FS_LB_InitMedium
                0x00007432       0x1a .\emFile_V322c\LinkLibrary\PSoC5\GCC\libemf16noslfn.a(FS_LogBlock.o)
                0x00007432                FS_LB_InitMedium
 .text.FS_LB_InitMediumIfRequired
                0x0000744c       0x10 .\emFile_V322c\LinkLibrary\PSoC5\GCC\libemf16noslfn.a(FS_LogBlock.o)
                0x0000744c                FS_LB_InitMediumIfRequired
 .text.FS_LB_ReadDevice
                0x0000745c       0x2e .\emFile_V322c\LinkLibrary\PSoC5\GCC\libemf16noslfn.a(FS_LogBlock.o)
                0x0000745c                FS_LB_ReadDevice
 .text.FS_LB_ReadPart
                0x0000748a        0xe .\emFile_V322c\LinkLibrary\PSoC5\GCC\libemf16noslfn.a(FS_LogBlock.o)
                0x0000748a                FS_LB_ReadPart
 .text.FS_LB_ReadBurst
                0x00007498       0x38 .\emFile_V322c\LinkLibrary\PSoC5\GCC\libemf16noslfn.a(FS_LogBlock.o)
                0x00007498                FS_LB_ReadBurst
 .text.FS_LB_ReadBurstPart
                0x000074d0       0x14 .\emFile_V322c\LinkLibrary\PSoC5\GCC\libemf16noslfn.a(FS_LogBlock.o)
                0x000074d0                FS_LB_ReadBurstPart
 .text.FS_LB_WriteBurst
                0x000074e4       0x30 .\emFile_V322c\LinkLibrary\PSoC5\GCC\libemf16noslfn.a(FS_LogBlock.o)
                0x000074e4                FS_LB_WriteBurst
 .text.FS_LB_WriteBurstPart
                0x00007514       0x14 .\emFile_V322c\LinkLibrary\PSoC5\GCC\libemf16noslfn.a(FS_LogBlock.o)
                0x00007514                FS_LB_WriteBurstPart
 .text.FS_LB_WriteMultiple
                0x00007528       0x30 .\emFile_V322c\LinkLibrary\PSoC5\GCC\libemf16noslfn.a(FS_LogBlock.o)
                0x00007528                FS_LB_WriteMultiple
 .text.FS_LB_WriteMultiplePart
                0x00007558       0x14 .\emFile_V322c\LinkLibrary\PSoC5\GCC\libemf16noslfn.a(FS_LogBlock.o)
                0x00007558                FS_LB_WriteMultiplePart
 .text.FS_LB_WriteDevice
                0x0000756c       0x36 .\emFile_V322c\LinkLibrary\PSoC5\GCC\libemf16noslfn.a(FS_LogBlock.o)
                0x0000756c                FS_LB_WriteDevice
 .text.FS_LB_WritePart
                0x000075a2        0xe .\emFile_V322c\LinkLibrary\PSoC5\GCC\libemf16noslfn.a(FS_LogBlock.o)
                0x000075a2                FS_LB_WritePart
 .text.FS_LB_Ioctl
                0x000075b0       0x2a .\emFile_V322c\LinkLibrary\PSoC5\GCC\libemf16noslfn.a(FS_LogBlock.o)
                0x000075b0                FS_LB_Ioctl
 .text.FS_GetSectorSize
                0x000075da       0x28 .\emFile_V322c\LinkLibrary\PSoC5\GCC\libemf16noslfn.a(FS_LogBlock.o)
                0x000075da                FS_GetSectorSize
 .text.FS_LB_GetDeviceInfo
                0x00007602       0x26 .\emFile_V322c\LinkLibrary\PSoC5\GCC\libemf16noslfn.a(FS_LogBlock.o)
                0x00007602                FS_LB_GetDeviceInfo
 .text.FS_memcpy
                0x00007628      0x120 .\emFile_V322c\LinkLibrary\PSoC5\GCC\libemf16noslfn.a(FS_memcpy.o)
                0x00007628                FS_memcpy
 .text.FS__AllocSectorBuffer
                0x00007748       0x2c .\emFile_V322c\LinkLibrary\PSoC5\GCC\libemf16noslfn.a(FS_Misc.o)
                0x00007748                FS__AllocSectorBuffer
 .text.FS__FreeSectorBuffer
                0x00007774       0x28 .\emFile_V322c\LinkLibrary\PSoC5\GCC\libemf16noslfn.a(FS_Misc.o)
                0x00007774                FS__FreeSectorBuffer
 .text.FS__SB_MarkDirty
                0x0000779c        0x6 .\emFile_V322c\LinkLibrary\PSoC5\GCC\libemf16noslfn.a(FS_Misc.o)
                0x0000779c                FS__SB_MarkDirty
 .text.FS__SB_MarkNotDirty
                0x000077a2        0x6 .\emFile_V322c\LinkLibrary\PSoC5\GCC\libemf16noslfn.a(FS_Misc.o)
                0x000077a2                FS__SB_MarkNotDirty
 .text.FS__FreeFileHandle
                0x000077a8        0xa .\emFile_V322c\LinkLibrary\PSoC5\GCC\libemf16noslfn.a(FS_Misc.o)
                0x000077a8                FS__FreeFileHandle
 .text.FS__FreeFileObj
                0x000077b2        0xc .\emFile_V322c\LinkLibrary\PSoC5\GCC\libemf16noslfn.a(FS_Misc.o)
                0x000077b2                FS__FreeFileObj
 *fill*         0x000077be        0x2 
 .text.FS_SetFileWriteMode
                0x000077c0        0xc .\emFile_V322c\LinkLibrary\PSoC5\GCC\libemf16noslfn.a(FS_Misc.o)
                0x000077c0                FS_SetFileWriteMode
 .text.FS_Init  0x000077cc       0x58 .\emFile_V322c\LinkLibrary\PSoC5\GCC\libemf16noslfn.a(FS_Misc.o)
                0x000077cc                FS_Init
 .text.FS__SB_Create
                0x00007824       0x28 .\emFile_V322c\LinkLibrary\PSoC5\GCC\libemf16noslfn.a(FS_Misc.o)
                0x00007824                FS__SB_Create
 .text.FS__FCloseNL
                0x0000784c       0x1e .\emFile_V322c\LinkLibrary\PSoC5\GCC\libemf16noslfn.a(FS_Misc.o)
                0x0000784c                FS__FCloseNL
 .text.FS__FClose
                0x0000786a       0x1a .\emFile_V322c\LinkLibrary\PSoC5\GCC\libemf16noslfn.a(FS_Misc.o)
                0x0000786a                FS__FClose
 .text.FS_FClose
                0x00007884        0xa .\emFile_V322c\LinkLibrary\PSoC5\GCC\libemf16noslfn.a(FS_Misc.o)
                0x00007884                FS_FClose
 *fill*         0x0000788e        0x2 
 .text.FS__AllocFileObj
                0x00007890       0x48 .\emFile_V322c\LinkLibrary\PSoC5\GCC\libemf16noslfn.a(FS_Misc.o)
                0x00007890                FS__AllocFileObj
 .text.FS__AllocFileHandle
                0x000078d8       0x40 .\emFile_V322c\LinkLibrary\PSoC5\GCC\libemf16noslfn.a(FS_Misc.o)
                0x000078d8                FS__AllocFileHandle
 .text.FS__OpenEx
                0x00007918       0x58 .\emFile_V322c\LinkLibrary\PSoC5\GCC\libemf16noslfn.a(FS_Misc.o)
                0x00007918                FS__OpenEx
 .text.FS__FOpenEx
                0x00007970       0x56 .\emFile_V322c\LinkLibrary\PSoC5\GCC\libemf16noslfn.a(FS_Misc.o)
                0x00007970                FS__FOpenEx
 *fill*         0x000079c6        0x2 
 .text.FS__FOpen
                0x000079c8       0x48 .\emFile_V322c\LinkLibrary\PSoC5\GCC\libemf16noslfn.a(FS_Misc.o)
                0x000079c8                FS__FOpen
 .text.FS_FOpen
                0x00007a10        0x4 .\emFile_V322c\LinkLibrary\PSoC5\GCC\libemf16noslfn.a(FS_Misc.o)
                0x00007a10                FS_FOpen
 .text.FS__Remove
                0x00007a14       0x28 .\emFile_V322c\LinkLibrary\PSoC5\GCC\libemf16noslfn.a(FS_Misc.o)
                0x00007a14                FS__Remove
 .text.FS_Remove
                0x00007a3c        0x4 .\emFile_V322c\LinkLibrary\PSoC5\GCC\libemf16noslfn.a(FS_Misc.o)
                0x00007a3c                FS_Remove
 .text.FS__SB_Write
                0x00007a40       0x24 .\emFile_V322c\LinkLibrary\PSoC5\GCC\libemf16noslfn.a(FS_Misc.o)
                0x00007a40                FS__SB_Write
 .text._SB_Clean
                0x00007a64       0x24 .\emFile_V322c\LinkLibrary\PSoC5\GCC\libemf16noslfn.a(FS_Misc.o)
 .text.FS__SB_SetSector
                0x00007a88       0x20 .\emFile_V322c\LinkLibrary\PSoC5\GCC\libemf16noslfn.a(FS_Misc.o)
                0x00007a88                FS__SB_SetSector
 .text.FS__SB_MarkValid
                0x00007aa8       0x10 .\emFile_V322c\LinkLibrary\PSoC5\GCC\libemf16noslfn.a(FS_Misc.o)
                0x00007aa8                FS__SB_MarkValid
 .text.FS__SB_Clean
                0x00007ab8        0x4 .\emFile_V322c\LinkLibrary\PSoC5\GCC\libemf16noslfn.a(FS_Misc.o)
                0x00007ab8                FS__SB_Clean
 .text.FS__SB_Delete
                0x00007abc       0x12 .\emFile_V322c\LinkLibrary\PSoC5\GCC\libemf16noslfn.a(FS_Misc.o)
                0x00007abc                FS__SB_Delete
 .text.FS__SB_Flush
                0x00007ace        0x8 .\emFile_V322c\LinkLibrary\PSoC5\GCC\libemf16noslfn.a(FS_Misc.o)
                0x00007ace                FS__SB_Flush
 .text.FS__SB_Read
                0x00007ad6       0x2a .\emFile_V322c\LinkLibrary\PSoC5\GCC\libemf16noslfn.a(FS_Misc.o)
                0x00007ad6                FS__SB_Read
 .text.FS__Read
                0x00007b00       0x2e .\emFile_V322c\LinkLibrary\PSoC5\GCC\libemf16noslfn.a(FS_Read.o)
                0x00007b00                FS__Read
 .text.FS_Read  0x00007b2e        0x4 .\emFile_V322c\LinkLibrary\PSoC5\GCC\libemf16noslfn.a(FS_Read.o)
                0x00007b2e                FS_Read
 .text.FS__AddPhysDevice
                0x00007b32       0x10 .\emFile_V322c\LinkLibrary\PSoC5\GCC\libemf16noslfn.a(FS_Storage.o)
                0x00007b32                FS__AddPhysDevice
 *fill*         0x00007b42        0x2 
 .text.FS_GetNumVolumes
                0x00007b44        0xc .\emFile_V322c\LinkLibrary\PSoC5\GCC\libemf16noslfn.a(FS_Storage.o)
                0x00007b44                FS_GetNumVolumes
 .text.FS__FindVolume
                0x00007b50       0x78 .\emFile_V322c\LinkLibrary\PSoC5\GCC\libemf16noslfn.a(FS_Storage.o)
                0x00007b50                FS__FindVolume
 .text.FS__AddDevice
                0x00007bc8       0x68 .\emFile_V322c\LinkLibrary\PSoC5\GCC\libemf16noslfn.a(FS_Storage.o)
                0x00007bc8                FS__AddDevice
 .text.FS_AddDevice
                0x00007c30        0x4 .\emFile_V322c\LinkLibrary\PSoC5\GCC\libemf16noslfn.a(FS_Storage.o)
                0x00007c30                FS_AddDevice
 .text.FS__IoCtlNL
                0x00007c34       0x36 .\emFile_V322c\LinkLibrary\PSoC5\GCC\libemf16noslfn.a(FS_Storage.o)
                0x00007c34                FS__IoCtlNL
 .text.FS__IoCtl
                0x00007c6a        0xa .\emFile_V322c\LinkLibrary\PSoC5\GCC\libemf16noslfn.a(FS_Storage.o)
                0x00007c6a                FS__IoCtl
 .text.FS__STORAGE_Sync
                0x00007c74       0x10 .\emFile_V322c\LinkLibrary\PSoC5\GCC\libemf16noslfn.a(FS_Storage.o)
                0x00007c74                FS__STORAGE_Sync
 .text.FS_FileTimeToTimeStamp
                0x00007c84       0x34 .\emFile_V322c\LinkLibrary\PSoC5\GCC\libemf16noslfn.a(FS_Time.o)
                0x00007c84                FS_FileTimeToTimeStamp
 .text.FS__SetFileTimeEx
                0x00007cb8       0x44 .\emFile_V322c\LinkLibrary\PSoC5\GCC\libemf16noslfn.a(FS_Time.o)
                0x00007cb8                FS__SetFileTimeEx
 .text.FS_SetFileTime
                0x00007cfc        0x6 .\emFile_V322c\LinkLibrary\PSoC5\GCC\libemf16noslfn.a(FS_Time.o)
                0x00007cfc                FS_SetFileTime
 *fill*         0x00007d02        0x2 
 .text.FS__UnmountForcedNL
                0x00007d04       0x54 .\emFile_V322c\LinkLibrary\PSoC5\GCC\libemf16noslfn.a(FS_Unmount.o)
                0x00007d04                FS__UnmountForcedNL
 .text.FS__UnmountForced
                0x00007d58        0x4 .\emFile_V322c\LinkLibrary\PSoC5\GCC\libemf16noslfn.a(FS_Unmount.o)
                0x00007d58                FS__UnmountForced
 .text.FS__Unmount
                0x00007d5c       0x60 .\emFile_V322c\LinkLibrary\PSoC5\GCC\libemf16noslfn.a(FS_Unmount.o)
                0x00007d5c                FS__Unmount
 .text.FS_Unmount
                0x00007dbc       0x14 .\emFile_V322c\LinkLibrary\PSoC5\GCC\libemf16noslfn.a(FS_Unmount.o)
                0x00007dbc                FS_Unmount
 .text.FS__Sync
                0x00007dd0       0x40 .\emFile_V322c\LinkLibrary\PSoC5\GCC\libemf16noslfn.a(FS_Volume.o)
                0x00007dd0                FS__Sync
 .text.FS_Sync  0x00007e10       0x16 .\emFile_V322c\LinkLibrary\PSoC5\GCC\libemf16noslfn.a(FS_Volume.o)
                0x00007e10                FS_Sync
 .text._Mount   0x00007e26       0x2e .\emFile_V322c\LinkLibrary\PSoC5\GCC\libemf16noslfn.a(FS_Volume.o)
 .text.FS__AutoMount
                0x00007e54       0x14 .\emFile_V322c\LinkLibrary\PSoC5\GCC\libemf16noslfn.a(FS_Volume.o)
                0x00007e54                FS__AutoMount
 .text.FS__Write
                0x00007e68       0x3a .\emFile_V322c\LinkLibrary\PSoC5\GCC\libemf16noslfn.a(FS_Write.o)
                0x00007e68                FS__Write
 .text.FS_Write
                0x00007ea2        0x4 .\emFile_V322c\LinkLibrary\PSoC5\GCC\libemf16noslfn.a(FS_Write.o)
                0x00007ea2                FS_Write
 *fill*         0x00007ea6        0x2 
 .text.FS_FAT_CreateDirEx
                0x00007ea8      0x110 .\emFile_V322c\LinkLibrary\PSoC5\GCC\libemf16noslfn.a(FAT_Dir.o)
                0x00007ea8                FS_FAT_CreateDirEx
 .text.FS_FAT_CreateDir
                0x00007fb8       0x64 .\emFile_V322c\LinkLibrary\PSoC5\GCC\libemf16noslfn.a(FAT_Dir.o)
                0x00007fb8                FS_FAT_CreateDir
 .text.FS_FAT_SetDirEntryInfo
                0x0000801c       0xb2 .\emFile_V322c\LinkLibrary\PSoC5\GCC\libemf16noslfn.a(FAT_DirEntry.o)
                0x0000801c                FS_FAT_SetDirEntryInfo
 .text.FS_FAT_GetDirEntryInfo
                0x000080ce       0x90 .\emFile_V322c\LinkLibrary\PSoC5\GCC\libemf16noslfn.a(FAT_DirEntry.o)
                0x000080ce                FS_FAT_GetDirEntryInfo
 *fill*         0x0000815e        0x2 
 .text.T.29     0x00008160      0x320 .\emFile_V322c\LinkLibrary\PSoC5\GCC\libemf16noslfn.a(FAT_Format.o)
 .text._AutoFormat
                0x00008480       0x7c .\emFile_V322c\LinkLibrary\PSoC5\GCC\libemf16noslfn.a(FAT_Format.o)
 .text.FS_FAT_FormatEx
                0x000084fc       0x74 .\emFile_V322c\LinkLibrary\PSoC5\GCC\libemf16noslfn.a(FAT_Format.o)
                0x000084fc                FS_FAT_FormatEx
 .text._ReadBurst
                0x00008570       0x24 .\emFile_V322c\LinkLibrary\PSoC5\GCC\libemf16noslfn.a(FAT_Read.o)
 .text.FS_FAT_Read
                0x00008594      0x194 .\emFile_V322c\LinkLibrary\PSoC5\GCC\libemf16noslfn.a(FAT_Read.o)
                0x00008594                FS_FAT_Read
 .text._IsBPB   0x00008728       0x1e .\emFile_V322c\LinkLibrary\PSoC5\GCC\libemf16noslfn.a(FS_Partition.o)
 .text._HasSignature
                0x00008746       0x18 .\emFile_V322c\LinkLibrary\PSoC5\GCC\libemf16noslfn.a(FS_Partition.o)
 .text._GetPartitionStartSector
                0x0000875e        0xc .\emFile_V322c\LinkLibrary\PSoC5\GCC\libemf16noslfn.a(FS_Partition.o)
 .text.FS__GetMediaStartSecEx
                0x0000876a       0x6e .\emFile_V322c\LinkLibrary\PSoC5\GCC\libemf16noslfn.a(FS_Partition.o)
                0x0000876a                FS__GetMediaStartSecEx
 .text.FS__LocatePartition
                0x000087d8       0x44 .\emFile_V322c\LinkLibrary\PSoC5\GCC\libemf16noslfn.a(FS_Partition.o)
                0x000087d8                FS__LocatePartition
 .text.FS_X_AddDevices
                0x0000881c       0x20 .\CortexM3\ARM_GCC_493\Debug\Node-Beaver.a(emFile_1_ConfigMMC_SPI.o)
                0x0000881c                FS_X_AddDevices
 .text.FS_X_GetTimeDate
                0x0000883c       0x58 .\CortexM3\ARM_GCC_493\Debug\Node-Beaver.a(emFile_1_ConfigMMC_SPI.o)
                0x0000883c                FS_X_GetTimeDate
 .text._CalcDataCRC16Dummy
                0x00008894        0x6 .\emFile_V322c\LinkLibrary\PSoC5\GCC\libemf16noslfn.a(MMC_Drv.o)
 *fill*         0x0000889a        0x2 
 .text._MMC_GetNumUnits
                0x0000889c        0xc .\emFile_V322c\LinkLibrary\PSoC5\GCC\libemf16noslfn.a(MMC_Drv.o)
 .text._MMC_GetDriverName
                0x000088a8        0x8 .\emFile_V322c\LinkLibrary\PSoC5\GCC\libemf16noslfn.a(MMC_Drv.o)
 .text._MMC_GetStatus
                0x000088b0        0x4 .\emFile_V322c\LinkLibrary\PSoC5\GCC\libemf16noslfn.a(MMC_Drv.o)
 .text._CheckR1
                0x000088b4       0x38 .\emFile_V322c\LinkLibrary\PSoC5\GCC\libemf16noslfn.a(MMC_Drv.o)
 .text._WaitToGetReady
                0x000088ec       0x26 .\emFile_V322c\LinkLibrary\PSoC5\GCC\libemf16noslfn.a(MMC_Drv.o)
 .text._SendEmptyCycles
                0x00008912       0x24 .\emFile_V322c\LinkLibrary\PSoC5\GCC\libemf16noslfn.a(MMC_Drv.o)
 *fill*         0x00008936        0x2 
 .text._MMC_AddDevice
                0x00008938       0x2c .\emFile_V322c\LinkLibrary\PSoC5\GCC\libemf16noslfn.a(MMC_Drv.o)
 .text.T.53     0x00008964       0x14 .\emFile_V322c\LinkLibrary\PSoC5\GCC\libemf16noslfn.a(MMC_Drv.o)
 .text._GetFromCSD
                0x00008978       0x34 .\emFile_V322c\LinkLibrary\PSoC5\GCC\libemf16noslfn.a(MMC_Drv.o)
 .text._ExecCmdR1
                0x000089ac       0x98 .\emFile_V322c\LinkLibrary\PSoC5\GCC\libemf16noslfn.a(MMC_Drv.o)
 .text._ReadCSD
                0x00008a44       0x86 .\emFile_V322c\LinkLibrary\PSoC5\GCC\libemf16noslfn.a(MMC_Drv.o)
 *fill*         0x00008aca        0x2 
 .text._MMC_Read
                0x00008acc      0x130 .\emFile_V322c\LinkLibrary\PSoC5\GCC\libemf16noslfn.a(MMC_Drv.o)
 .text._MMC_Write
                0x00008bfc      0x13c .\emFile_V322c\LinkLibrary\PSoC5\GCC\libemf16noslfn.a(MMC_Drv.o)
 .text._ApplyCSD
                0x00008d38      0x228 .\emFile_V322c\LinkLibrary\PSoC5\GCC\libemf16noslfn.a(MMC_Drv.o)
 .text._MMC_Init
                0x00008f60      0x1c0 .\emFile_V322c\LinkLibrary\PSoC5\GCC\libemf16noslfn.a(MMC_Drv.o)
 .text._MMC_InitMedium
                0x00009120       0x28 .\emFile_V322c\LinkLibrary\PSoC5\GCC\libemf16noslfn.a(MMC_Drv.o)
 .text._MMC_IoCtl
                0x00009148       0x60 .\emFile_V322c\LinkLibrary\PSoC5\GCC\libemf16noslfn.a(MMC_Drv.o)
 .text.emFile_1_Init
                0x000091a8       0x64 .\CortexM3\ARM_GCC_493\Debug\Node-Beaver.a(emFile_1_MMC_HW_SPI.o)
 .text.emFile_1_ReadWriteSPI
                0x0000920c       0x68 .\CortexM3\ARM_GCC_493\Debug\Node-Beaver.a(emFile_1_MMC_HW_SPI.o)
 .text.FS_MMC_HW_X_EnableCS
                0x00009274       0x28 .\CortexM3\ARM_GCC_493\Debug\Node-Beaver.a(emFile_1_MMC_HW_SPI.o)
                0x00009274                FS_MMC_HW_X_EnableCS
 .text.FS_MMC_HW_X_DisableCS
                0x0000929c       0x28 .\CortexM3\ARM_GCC_493\Debug\Node-Beaver.a(emFile_1_MMC_HW_SPI.o)
                0x0000929c                FS_MMC_HW_X_DisableCS
 .text.FS_MMC_HW_X_IsWriteProtected
                0x000092c4       0x2c .\CortexM3\ARM_GCC_493\Debug\Node-Beaver.a(emFile_1_MMC_HW_SPI.o)
                0x000092c4                FS_MMC_HW_X_IsWriteProtected
 .text.FS_MMC_HW_X_SetMaxSpeed
                0x000092f0       0x88 .\CortexM3\ARM_GCC_493\Debug\Node-Beaver.a(emFile_1_MMC_HW_SPI.o)
                0x000092f0                FS_MMC_HW_X_SetMaxSpeed
 .text.FS_MMC_HW_X_SetVoltage
                0x00009378       0x68 .\CortexM3\ARM_GCC_493\Debug\Node-Beaver.a(emFile_1_MMC_HW_SPI.o)
                0x00009378                FS_MMC_HW_X_SetVoltage
 .text.FS_MMC_HW_X_IsPresent
                0x000093e0       0x30 .\CortexM3\ARM_GCC_493\Debug\Node-Beaver.a(emFile_1_MMC_HW_SPI.o)
                0x000093e0                FS_MMC_HW_X_IsPresent
 .text.FS_MMC_HW_X_Read
                0x00009410       0x34 .\CortexM3\ARM_GCC_493\Debug\Node-Beaver.a(emFile_1_MMC_HW_SPI.o)
                0x00009410                FS_MMC_HW_X_Read
 .text.FS_MMC_HW_X_Write
                0x00009444       0x34 .\CortexM3\ARM_GCC_493\Debug\Node-Beaver.a(emFile_1_MMC_HW_SPI.o)
                0x00009444                FS_MMC_HW_X_Write
 .text.emFile_1_SPI0_Init
                0x00009478       0x30 .\CortexM3\ARM_GCC_493\Debug\Node-Beaver.a(emFile_1_SPI0.o)
                0x00009478                emFile_1_SPI0_Init
 .text.emFile_1_SPI0_Enable
                0x000094a8       0x60 .\CortexM3\ARM_GCC_493\Debug\Node-Beaver.a(emFile_1_SPI0.o)
                0x000094a8                emFile_1_SPI0_Enable
 .text.emFile_1_SPI0_Start
                0x00009508       0x20 .\CortexM3\ARM_GCC_493\Debug\Node-Beaver.a(emFile_1_SPI0.o)
                0x00009508                emFile_1_SPI0_Start
 .text.emFile_1_SPI0_EnableTxInt
                0x00009528        0xc .\CortexM3\ARM_GCC_493\Debug\Node-Beaver.a(emFile_1_SPI0.o)
                0x00009528                emFile_1_SPI0_EnableTxInt
 .text.emFile_1_SPI0_EnableRxInt
                0x00009534        0xc .\CortexM3\ARM_GCC_493\Debug\Node-Beaver.a(emFile_1_SPI0.o)
                0x00009534                emFile_1_SPI0_EnableRxInt
 .text.emFile_1_SPI0_ReadTxStatus
                0x00009540       0x20 .\CortexM3\ARM_GCC_493\Debug\Node-Beaver.a(emFile_1_SPI0.o)
                0x00009540                emFile_1_SPI0_ReadTxStatus
 .text.emFile_1_SPI0_ReadRxStatus
                0x00009560       0x20 .\CortexM3\ARM_GCC_493\Debug\Node-Beaver.a(emFile_1_SPI0.o)
                0x00009560                emFile_1_SPI0_ReadRxStatus
 .text.emFile_1_SPI0_WriteTxData
                0x00009580       0x34 .\CortexM3\ARM_GCC_493\Debug\Node-Beaver.a(emFile_1_SPI0.o)
                0x00009580                emFile_1_SPI0_WriteTxData
 .text.emFile_1_SPI0_ReadRxData
                0x000095b4       0x20 .\CortexM3\ARM_GCC_493\Debug\Node-Beaver.a(emFile_1_SPI0.o)
                0x000095b4                emFile_1_SPI0_ReadRxData
 .text.emFile_1_SPI0_ClearFIFO
                0x000095d4       0x5c .\CortexM3\ARM_GCC_493\Debug\Node-Beaver.a(emFile_1_SPI0.o)
                0x000095d4                emFile_1_SPI0_ClearFIFO
 .text.emFile_1_Clock_1_Start
                0x00009630       0x34 .\CortexM3\ARM_GCC_493\Debug\Node-Beaver.a(emFile_1_Clock_1.o)
                0x00009630                emFile_1_Clock_1_Start
 .text.emFile_1_Clock_1_Stop
                0x00009664       0x34 .\CortexM3\ARM_GCC_493\Debug\Node-Beaver.a(emFile_1_Clock_1.o)
                0x00009664                emFile_1_Clock_1_Stop
 .text.emFile_1_Clock_1_SetDividerRegister
                0x00009698      0x160 .\CortexM3\ARM_GCC_493\Debug\Node-Beaver.a(emFile_1_Clock_1.o)
                0x00009698                emFile_1_Clock_1_SetDividerRegister
 .text.emFile_1_Clock_1_GetDividerRegister
                0x000097f8       0x18 .\CortexM3\ARM_GCC_493\Debug\Node-Beaver.a(emFile_1_Clock_1.o)
                0x000097f8                emFile_1_Clock_1_GetDividerRegister
 .text.emFile_1_Clock_1_GetSourceRegister
                0x00009810       0x20 .\CortexM3\ARM_GCC_493\Debug\Node-Beaver.a(emFile_1_Clock_1.o)
                0x00009810                emFile_1_Clock_1_GetSourceRegister
 .text.emFile_1_SPI0_CS_Write
                0x00009830       0x3c .\CortexM3\ARM_GCC_493\Debug\Node-Beaver.a(emFile_1_SPI0_CS.o)
                0x00009830                emFile_1_SPI0_CS_Write
 .text.atoi     0x0000986c        0x8 d:/programming/cypress/psoc creator/4.0/psoc creator/import/gnu/arm/4.9.3/bin/../lib/gcc/arm-none-eabi/4.9.3/../../../../arm-none-eabi/lib/armv7-m\libg_nano.a(lib_a-atoi.o)
                0x0000986c                atoi
 .text.__errno  0x00009874        0xc d:/programming/cypress/psoc creator/4.0/psoc creator/import/gnu/arm/4.9.3/bin/../lib/gcc/arm-none-eabi/4.9.3/../../../../arm-none-eabi/lib/armv7-m\libg_nano.a(lib_a-errno.o)
                0x00009874                __errno
 .text.__libc_init_array
                0x00009880       0x4c d:/programming/cypress/psoc creator/4.0/psoc creator/import/gnu/arm/4.9.3/bin/../lib/gcc/arm-none-eabi/4.9.3/../../../../arm-none-eabi/lib/armv7-m\libg_nano.a(lib_a-init.o)
                0x00009880                __libc_init_array
 .text.memcpy   0x000098cc       0x16 d:/programming/cypress/psoc creator/4.0/psoc creator/import/gnu/arm/4.9.3/bin/../lib/gcc/arm-none-eabi/4.9.3/../../../../arm-none-eabi/lib/armv7-m\libg_nano.a(lib_a-memcpy.o)
                0x000098cc                memcpy
 .text.memset   0x000098e2       0x10 d:/programming/cypress/psoc creator/4.0/psoc creator/import/gnu/arm/4.9.3/bin/../lib/gcc/arm-none-eabi/4.9.3/../../../../arm-none-eabi/lib/armv7-m\libg_nano.a(lib_a-memset.o)
                0x000098e2                memset
 *fill*         0x000098f2        0x2 
 .text.sprintf  0x000098f4       0x48 d:/programming/cypress/psoc creator/4.0/psoc creator/import/gnu/arm/4.9.3/bin/../lib/gcc/arm-none-eabi/4.9.3/../../../../arm-none-eabi/lib/armv7-m\libg_nano.a(lib_a-sprintf.o)
                0x000098f4                siprintf
                0x000098f4                sprintf
 .text.strtok   0x0000993c       0x64 d:/programming/cypress/psoc creator/4.0/psoc creator/import/gnu/arm/4.9.3/bin/../lib/gcc/arm-none-eabi/4.9.3/../../../../arm-none-eabi/lib/armv7-m\libg_nano.a(lib_a-strtok.o)
                0x0000993c                strtok
 .text.__strtok_r
                0x000099a0       0x56 d:/programming/cypress/psoc creator/4.0/psoc creator/import/gnu/arm/4.9.3/bin/../lib/gcc/arm-none-eabi/4.9.3/../../../../arm-none-eabi/lib/armv7-m\libg_nano.a(lib_a-strtok_r.o)
                0x000099a0                __strtok_r
 *fill*         0x000099f6        0x2 
 .text._strtol_r
                0x000099f8      0x10c d:/programming/cypress/psoc creator/4.0/psoc creator/import/gnu/arm/4.9.3/bin/../lib/gcc/arm-none-eabi/4.9.3/../../../../arm-none-eabi/lib/armv7-m\libg_nano.a(lib_a-strtol.o)
                0x000099f8                _strtol_r
 .text.strtol   0x00009b04       0x1c d:/programming/cypress/psoc creator/4.0/psoc creator/import/gnu/arm/4.9.3/bin/../lib/gcc/arm-none-eabi/4.9.3/../../../../arm-none-eabi/lib/armv7-m\libg_nano.a(lib_a-strtol.o)
                0x00009b04                strtol
 .text.malloc   0x00009b20       0x10 d:/programming/cypress/psoc creator/4.0/psoc creator/import/gnu/arm/4.9.3/bin/../lib/gcc/arm-none-eabi/4.9.3/../../../../arm-none-eabi/lib/armv7-m\libg_nano.a(lib_a-malloc.o)
                0x00009b20                malloc
 .text._free_r  0x00009b30       0x88 d:/programming/cypress/psoc creator/4.0/psoc creator/import/gnu/arm/4.9.3/bin/../lib/gcc/arm-none-eabi/4.9.3/../../../../arm-none-eabi/lib/armv7-m\libg_nano.a(lib_a-nano-freer.o)
                0x00009b30                _free_r
 .text._malloc_r
                0x00009bb8       0xac d:/programming/cypress/psoc creator/4.0/psoc creator/import/gnu/arm/4.9.3/bin/../lib/gcc/arm-none-eabi/4.9.3/../../../../arm-none-eabi/lib/armv7-m\libg_nano.a(lib_a-nano-mallocr.o)
                0x00009bb8                _malloc_r
 .text.__ssputs_r
                0x00009c64       0xb2 d:/programming/cypress/psoc creator/4.0/psoc creator/import/gnu/arm/4.9.3/bin/../lib/gcc/arm-none-eabi/4.9.3/../../../../arm-none-eabi/lib/armv7-m\libg_nano.a(lib_a-nano-svfprintf.o)
                0x00009c64                __ssputs_r
 *fill*         0x00009d16        0x2 
 .text._svfprintf_r
                0x00009d18      0x1e4 d:/programming/cypress/psoc creator/4.0/psoc creator/import/gnu/arm/4.9.3/bin/../lib/gcc/arm-none-eabi/4.9.3/../../../../arm-none-eabi/lib/armv7-m\libg_nano.a(lib_a-nano-svfprintf.o)
                0x00009d18                _svfiprintf_r
                0x00009d18                _svfprintf_r
 .text._printf_common
                0x00009efc       0xea d:/programming/cypress/psoc creator/4.0/psoc creator/import/gnu/arm/4.9.3/bin/../lib/gcc/arm-none-eabi/4.9.3/../../../../arm-none-eabi/lib/armv7-m\libg_nano.a(lib_a-nano-vfprintf_i.o)
                0x00009efc                _printf_common
 *fill*         0x00009fe6        0x2 
 .text._printf_i
                0x00009fe8      0x240 d:/programming/cypress/psoc creator/4.0/psoc creator/import/gnu/arm/4.9.3/bin/../lib/gcc/arm-none-eabi/4.9.3/../../../../arm-none-eabi/lib/armv7-m\libg_nano.a(lib_a-nano-vfprintf_i.o)
                0x00009fe8                _printf_i
 .text._sbrk_r  0x0000a228       0x20 d:/programming/cypress/psoc creator/4.0/psoc creator/import/gnu/arm/4.9.3/bin/../lib/gcc/arm-none-eabi/4.9.3/../../../../arm-none-eabi/lib/armv7-m\libg_nano.a(lib_a-sbrkr.o)
                0x0000a228                _sbrk_r
 .text.memchr   0x0000a248       0x1c d:/programming/cypress/psoc creator/4.0/psoc creator/import/gnu/arm/4.9.3/bin/../lib/gcc/arm-none-eabi/4.9.3/../../../../arm-none-eabi/lib/armv7-m\libg_nano.a(lib_a-memchr.o)
                0x0000a248                memchr
 .text.memmove  0x0000a264       0x36 d:/programming/cypress/psoc creator/4.0/psoc creator/import/gnu/arm/4.9.3/bin/../lib/gcc/arm-none-eabi/4.9.3/../../../../arm-none-eabi/lib/armv7-m\libg_nano.a(lib_a-memmove.o)
                0x0000a264                memmove
 .text._realloc_r
                0x0000a29a       0x4c d:/programming/cypress/psoc creator/4.0/psoc creator/import/gnu/arm/4.9.3/bin/../lib/gcc/arm-none-eabi/4.9.3/../../../../arm-none-eabi/lib/armv7-m\libg_nano.a(lib_a-nano-reallocr.o)
                0x0000a29a                _realloc_r
 .text._malloc_usable_size_r
                0x0000a2e6       0x14 d:/programming/cypress/psoc creator/4.0/psoc creator/import/gnu/arm/4.9.3/bin/../lib/gcc/arm-none-eabi/4.9.3/../../../../arm-none-eabi/lib/armv7-m\libg_nano.a(lib_a-nano-msizer.o)
                0x0000a2e6                _malloc_usable_size_r
 *(.plt)
 *(.gnu.warning)
 *(.glue_7t)
 .glue_7t       0x00000000        0x0 linker stubs
 *(.glue_7)
 .glue_7        0x00000000        0x0 linker stubs
 *(.vfp11_veneer)
 .vfp11_veneer  0x00000000        0x0 linker stubs
 *(.bootloader)
 *(.ARM.extab* .gnu.linkonce.armextab.*)
 *(.gcc_except_table)

.v4_bx          0x0000a2fc        0x0
 .v4_bx         0x00000000        0x0 linker stubs

.iplt           0x0000a2fc        0x0
 .iplt          0x00000000        0x0 d:/programming/cypress/psoc creator/4.0/psoc creator/import/gnu/arm/4.9.3/bin/../lib/gcc/arm-none-eabi/4.9.3/armv7-m/crtbegin.o

.eh_frame_hdr
 *(.eh_frame_hdr)

.eh_frame       0x0000a2fc        0x4
 *(.eh_frame)
 .eh_frame      0x0000a2fc        0x0 d:/programming/cypress/psoc creator/4.0/psoc creator/import/gnu/arm/4.9.3/bin/../lib/gcc/arm-none-eabi/4.9.3/armv7-m/crtbegin.o
 .eh_frame      0x0000a2fc        0x4 d:/programming/cypress/psoc creator/4.0/psoc creator/import/gnu/arm/4.9.3/bin/../lib/gcc/arm-none-eabi/4.9.3/armv7-m/crtend.o
                0x0000a300                PROVIDE (__exidx_start, .)

.ARM.exidx
 *(.ARM.exidx* .gnu.linkonce.armexidx.*)
                0x0000a300                __exidx_end = .

.rodata         0x0000a300      0x810
 *(.rodata .rodata.* .gnu.linkonce.r.*)
 .rodata        0x0000a300       0xcc .\CortexM3\ARM_GCC_493\Debug\sd_manager.o
                0x0000a300                set_time_file
                0x0000a310                format_file
 .rodata        0x0000a3cc       0x44 .\CortexM3\ARM_GCC_493\Debug\Node-Beaver.a(cyfitter_cfg.o)
 .rodata        0x0000a410      0x160 .\CortexM3\ARM_GCC_493\Debug\Node-Beaver.a(CAN_1.o)
 .rodata        0x0000a570       0x14 .\CortexM3\ARM_GCC_493\Debug\Node-Beaver.a(USBUART_1_std.o)
 .rodata        0x0000a584      0x19c .\CortexM3\ARM_GCC_493\Debug\Node-Beaver.a(USBUART_1_descr.o)
                0x0000a584                USBUART_1_DEVICE0_DESCR
                0x0000a598                USBUART_1_DEVICE0_CONFIGURATION0_DESCR
                0x0000a5dc                USBUART_1_STRING_DESCRIPTORS
                0x0000a67c                USBUART_1_SN_STRING_DESCRIPTOR
                0x0000a680                USBUART_1_DEVICE0_CONFIGURATION0_EP_SETTINGS_TABLE
                0x0000a698                USBUART_1_DEVICE0_CONFIGURATION0_INTERFACE_CLASS
                0x0000a69c                USBUART_1_DEVICE0_CONFIGURATION0_TABLE
                0x0000a6c4                USBUART_1_DEVICE0_TABLE
                0x0000a6dc                USBUART_1_TABLE
                0x0000a6e4                USBUART_1_MSOS_DESCRIPTOR
                0x0000a6f8                USBUART_1_MSOS_CONFIGURATION_DESCR
 .rodata        0x0000a720       0x98 .\emFile_V322c\LinkLibrary\PSoC5\GCC\libemf16noslfn.a(FAT_FormatSD.o)
 .rodata        0x0000a7b8       0x10 .\emFile_V322c\LinkLibrary\PSoC5\GCC\libemf16noslfn.a(FAT_LFN.o)
                0x0000a7b8                FAT_LFN_API
 .rodata        0x0000a7c8       0x10 .\emFile_V322c\LinkLibrary\PSoC5\GCC\libemf16noslfn.a(FAT_Misc.o)
                0x0000a7c8                FAT_SFN_API
 .rodata.str1.1
                0x0000a7d8        0x3 .\emFile_V322c\LinkLibrary\PSoC5\GCC\libemf16noslfn.a(FAT_Open.o)
 *fill*         0x0000a7db        0x1 
 .rodata        0x0000a7dc       0x78 .\emFile_V322c\LinkLibrary\PSoC5\GCC\libemf16noslfn.a(FS_Misc.o)
 .rodata.str1.1
                0x0000a854       0x30 .\emFile_V322c\LinkLibrary\PSoC5\GCC\libemf16noslfn.a(FS_Misc.o)
 .rodata        0x0000a884       0x18 .\emFile_V322c\LinkLibrary\PSoC5\GCC\libemf16noslfn.a(FAT_Dir.o)
 .rodata        0x0000a89c       0x7c .\emFile_V322c\LinkLibrary\PSoC5\GCC\libemf16noslfn.a(FAT_Format.o)
                0x0000a8ac                _acVolumeLabel
 .rodata.str1.1
                0x0000a918       0x1b .\emFile_V322c\LinkLibrary\PSoC5\GCC\libemf16noslfn.a(FAT_Format.o)
 *fill*         0x0000a933        0x1 
 .rodata        0x0000a934       0x68 .\emFile_V322c\LinkLibrary\PSoC5\GCC\libemf16noslfn.a(MMC_Drv.o)
                0x0000a97c                FS_MMC_SPI_Driver
 .rodata.str1.1
                0x0000a99c        0x4 .\emFile_V322c\LinkLibrary\PSoC5\GCC\libemf16noslfn.a(MMC_Drv.o)
 .rodata.str1.1
                0x0000a9a0        0x2 d:/programming/cypress/psoc creator/4.0/psoc creator/import/gnu/arm/4.9.3/bin/../lib/gcc/arm-none-eabi/4.9.3/../../../../arm-none-eabi/lib/armv7-m\libg_nano.a(lib_a-impure.o)
 .rodata._ctype_
                0x0000a9a2      0x101 d:/programming/cypress/psoc creator/4.0/psoc creator/import/gnu/arm/4.9.3/bin/../lib/gcc/arm-none-eabi/4.9.3/../../../../arm-none-eabi/lib/armv7-m\libg_nano.a(lib_a-ctype_.o)
                0x0000a9a2                _ctype_
 .rodata.str1.1
                0x0000aaa3       0x11 d:/programming/cypress/psoc creator/4.0/psoc creator/import/gnu/arm/4.9.3/bin/../lib/gcc/arm-none-eabi/4.9.3/../../../../arm-none-eabi/lib/armv7-m\libg_nano.a(lib_a-nano-svfprintf.o)
 .rodata.str1.1
                0x0000aab4       0x22 d:/programming/cypress/psoc creator/4.0/psoc creator/import/gnu/arm/4.9.3/bin/../lib/gcc/arm-none-eabi/4.9.3/../../../../arm-none-eabi/lib/armv7-m\libg_nano.a(lib_a-nano-vfprintf_i.o)
                0x0000aad8                . = ALIGN (0x4)
 *fill*         0x0000aad6        0x2 
 *(.init)
 .init          0x0000aad8        0x4 d:/programming/cypress/psoc creator/4.0/psoc creator/import/gnu/arm/4.9.3/bin/../lib/gcc/arm-none-eabi/4.9.3/armv7-m/crti.o
                0x0000aad8                _init
 .init          0x0000aadc        0x8 d:/programming/cypress/psoc creator/4.0/psoc creator/import/gnu/arm/4.9.3/bin/../lib/gcc/arm-none-eabi/4.9.3/armv7-m/crtn.o
                0x0000aae4                . = ALIGN (0x4)
                0x0000aae4                __preinit_array_start = .
 *(.preinit_array)
                0x0000aae4                __preinit_array_end = .
                0x0000aae4                . = ALIGN (0x4)
                0x0000aae4                __init_array_start = .
 *(SORT(.init_array.*))
 *(.init_array)
 .init_array    0x0000aae4        0x4 d:/programming/cypress/psoc creator/4.0/psoc creator/import/gnu/arm/4.9.3/bin/../lib/gcc/arm-none-eabi/4.9.3/armv7-m/crtbegin.o
 .init_array    0x0000aae8        0x4 .\CortexM3\ARM_GCC_493\Debug\Cm3Start.o
                0x0000aaec                __init_array_end = .
                0x0000aaec                . = ALIGN (0x4)
 *(.fini)
 .fini          0x0000aaec        0x4 d:/programming/cypress/psoc creator/4.0/psoc creator/import/gnu/arm/4.9.3/bin/../lib/gcc/arm-none-eabi/4.9.3/armv7-m/crti.o
                0x0000aaec                _fini
 .fini          0x0000aaf0        0x8 d:/programming/cypress/psoc creator/4.0/psoc creator/import/gnu/arm/4.9.3/bin/../lib/gcc/arm-none-eabi/4.9.3/armv7-m/crtn.o
                0x0000aaf8                . = ALIGN (0x4)
                0x0000aaf8                __fini_array_start = .
 *(.fini_array)
 .fini_array    0x0000aaf8        0x4 d:/programming/cypress/psoc creator/4.0/psoc creator/import/gnu/arm/4.9.3/bin/../lib/gcc/arm-none-eabi/4.9.3/armv7-m/crtbegin.o
 *(SORT(.fini_array.*))
                0x0000aafc                __fini_array_end = .
                0x0000aafc                . = ALIGN (0x4)
 *crtbegin.o(.ctors)
 *(EXCLUDE_FILE(*crtend.o) .ctors)
 *(SORT(.ctors.*))
 *crtend.o(.ctors)
                0x0000aafc                . = ALIGN (0x4)
 *crtbegin.o(.dtors)
 *(EXCLUDE_FILE(*crtend.o) .dtors)
 *(SORT(.dtors.*))
 *crtend.o(.dtors)
                0x0000aafc                . = ALIGN (0x4)
                0x0000aafc                __cy_regions = .
                0x0000aafc        0x4 LONG 0xab10 __cy_region_init_ram
                0x0000ab00        0x4 LONG 0x1fff8108 __cy_region_start_data
                0x0000ab04        0x4 LONG 0xa8 __cy_region_init_size_ram
                0x0000ab08        0x4 LONG 0x52c0 __cy_region_zero_size_ram
                0x0000ab0c                __cy_regions_end = .
                0x0000ab10                . = ALIGN (0x8)
 *fill*         0x0000ab0c        0x4 
                0x0000ab10                _etext = .

.cy_checksum_exclude
                0x0000ab10        0x0
 *(.cy_checksum_exclude)

.ramvectors     0x1fff8000      0x100
                0x1fff8000                __cy_region_start_ram = .
 *(.ramvectors)
 .ramvectors    0x1fff8000      0x100 .\CortexM3\ARM_GCC_493\Debug\Cm3Start.o
                0x1fff8000                CyRamVectors

.noinit         0x1fff8100        0x5
 *(.noinit)
 .noinit        0x1fff8100        0x4 .\CortexM3\ARM_GCC_493\Debug\Cm3Start.o
 .noinit        0x1fff8104        0x1 .\CortexM3\ARM_GCC_493\Debug\Node-Beaver.a(CyLib.o)
                0x1fff8104                CyResetStatus

.data           0x1fff8108       0xa8 load address 0x0000ab10
                0x1fff8108                __cy_region_start_data = .
 *(.jcr)
 .jcr           0x1fff8108        0x0 d:/programming/cypress/psoc creator/4.0/psoc creator/import/gnu/arm/4.9.3/bin/../lib/gcc/arm-none-eabi/4.9.3/armv7-m/crtbegin.o
 .jcr           0x1fff8108        0x4 d:/programming/cypress/psoc creator/4.0/psoc creator/import/gnu/arm/4.9.3/bin/../lib/gcc/arm-none-eabi/4.9.3/armv7-m/crtend.o
 *(.got.plt)
 *(.got)
 *(.shdata)
 *(.data .data.* .gnu.linkonce.d.*)
 .data          0x1fff810c        0x4 .\CortexM3\ARM_GCC_493\Debug\Cm3Start.o
 .data          0x1fff8110       0x10 .\CortexM3\ARM_GCC_493\Debug\Node-Beaver.a(CyLib.o)
                0x1fff8110                cydelay_freq_hz
                0x1fff8114                cydelay_freq_khz
                0x1fff8118                cydelay_freq_mhz
                0x1fff811c                cydelay_32k_ms
 .data          0x1fff8120       0x1c .\CortexM3\ARM_GCC_493\Debug\Node-Beaver.a(USBUART_1_cdc.o)
                0x1fff8120                USBUART_1_linesCoding
 .data          0x1fff813c        0x4 .\emFile_V322c\LinkLibrary\PSoC5\GCC\libemf16noslfn.a(FAT_Misc.o)
                0x1fff813c                FAT_pDirEntryAPI
 .data          0x1fff8140        0x4 .\emFile_V322c\LinkLibrary\PSoC5\GCC\libemf16noslfn.a(MMC_Drv.o)
 .data.impure_data
                0x1fff8144       0x60 d:/programming/cypress/psoc creator/4.0/psoc creator/import/gnu/arm/4.9.3/bin/../lib/gcc/arm-none-eabi/4.9.3/../../../../arm-none-eabi/lib/armv7-m\libg_nano.a(lib_a-impure.o)
 .data._impure_ptr
                0x1fff81a4        0x4 d:/programming/cypress/psoc creator/4.0/psoc creator/import/gnu/arm/4.9.3/bin/../lib/gcc/arm-none-eabi/4.9.3/../../../../arm-none-eabi/lib/armv7-m\libg_nano.a(lib_a-impure.o)
                0x1fff81a4                _impure_ptr
 .data.__ctype_ptr__
                0x1fff81a8        0x4 d:/programming/cypress/psoc creator/4.0/psoc creator/import/gnu/arm/4.9.3/bin/../lib/gcc/arm-none-eabi/4.9.3/../../../../arm-none-eabi/lib/armv7-m\libg_nano.a(lib_a-ctype_.o)
                0x1fff81a8                __ctype_ptr__
                0x1fff81b0                . = ALIGN (0x8)
 *fill*         0x1fff81ac        0x4 
 *(.ram)
                0x1fff81b0                _edata = .

.igot.plt       0x1fff81b0        0x0 load address 0x0000abb8
 .igot.plt      0x00000000        0x0 d:/programming/cypress/psoc creator/4.0/psoc creator/import/gnu/arm/4.9.3/bin/../lib/gcc/arm-none-eabi/4.9.3/armv7-m/crtbegin.o

.bss            0x1fff81b0     0x52c0 load address 0x0000abb8
                0x1fff81b0                PROVIDE (__bss_start__, .)
 *(.shbss)
 *(.bss .bss.* .gnu.linkonce.b.*)
 .bss           0x1fff81b0       0x1c d:/programming/cypress/psoc creator/4.0/psoc creator/import/gnu/arm/4.9.3/bin/../lib/gcc/arm-none-eabi/4.9.3/armv7-m/crtbegin.o
 .bss           0x1fff81cc        0x6 .\CortexM3\ARM_GCC_493\Debug\sd_manager.o
                0x1fff81cc                sd_ok
                0x1fff81ce                sd_head
                0x1fff81d0                sd_tail
 .bss           0x1fff81d2        0x1 .\CortexM3\ARM_GCC_493\Debug\Node-Beaver.a(CAN_1.o)
                0x1fff81d2                CAN_1_initVar
 .bss           0x1fff81d3        0x1 .\CortexM3\ARM_GCC_493\Debug\Node-Beaver.a(USBUART_1.o)
                0x1fff81d3                USBUART_1_initVar
 .bss           0x1fff81d4        0x4 .\CortexM3\ARM_GCC_493\Debug\Node-Beaver.a(USBUART_1_std.o)
 .bss           0x1fff81d8        0x1 .\CortexM3\ARM_GCC_493\Debug\Node-Beaver.a(rtc_i2c.o)
                0x1fff81d8                rtc_i2c_initVar
 .bss           0x1fff81d9        0x1 .\CortexM3\ARM_GCC_493\Debug\Node-Beaver.a(millis_timer.o)
                0x1fff81d9                millis_timer_initVar
 .bss           0x1fff81da        0x1 .\CortexM3\ARM_GCC_493\Debug\Node-Beaver.a(time_refresh_timer.o)
                0x1fff81da                time_refresh_timer_initVar
 .bss           0x1fff81db        0x1 .\CortexM3\ARM_GCC_493\Debug\Node-Beaver.a(power_comp.o)
                0x1fff81db                power_comp_initVar
 .bss           0x1fff81dc        0x7 .\CortexM3\ARM_GCC_493\Debug\Node-Beaver.a(xbee_UART.o)
                0x1fff81dc                xbee_UART_initVar
                0x1fff81dd                xbee_UART_errorStatus
                0x1fff81de                xbee_UART_rxBufferRead
                0x1fff81df                xbee_UART_rxBufferWrite
                0x1fff81e0                xbee_UART_rxBufferLoopDetect
                0x1fff81e1                xbee_UART_rxBufferOverflow
 .bss           0x1fff81e3        0x1 .\CortexM3\ARM_GCC_493\Debug\Node-Beaver.a(sd_timer.o)
                0x1fff81e3                sd_timer_initVar
 .bss           0x1fff81e4        0x1 .\CortexM3\ARM_GCC_493\Debug\Node-Beaver.a(car_state_timer.o)
                0x1fff81e4                car_state_timer_initVar
 .bss           0x1fff81e5        0x1 .\CortexM3\ARM_GCC_493\Debug\Node-Beaver.a(heartbeat_timer.o)
                0x1fff81e5                heartbeat_timer_initVar
 *fill*         0x1fff81e6        0x2 
 .bss           0x1fff81e8        0xc .\emFile_V322c\LinkLibrary\PSoC5\GCC\libemf16noslfn.a(FS_Core.o)
 .bss           0x1fff81f4     0x1000 .\CortexM3\ARM_GCC_493\Debug\Node-Beaver.a(emFile_1_ConfigMMC_SPI.o)
 .bss           0x1fff91f4       0x14 .\emFile_V322c\LinkLibrary\PSoC5\GCC\libemf16noslfn.a(MMC_Drv.o)
 .bss           0x1fff9208        0x1 .\CortexM3\ARM_GCC_493\Debug\Node-Beaver.a(emFile_1_MMC_HW_SPI.o)
 .bss           0x1fff9209        0x1 .\CortexM3\ARM_GCC_493\Debug\Node-Beaver.a(emFile_1_SPI0.o)
                0x1fff9209                emFile_1_SPI0_initVar
 *fill*         0x1fff920a        0x2 
 .bss.__malloc_sbrk_start
                0x1fff920c        0x4 d:/programming/cypress/psoc creator/4.0/psoc creator/import/gnu/arm/4.9.3/bin/../lib/gcc/arm-none-eabi/4.9.3/../../../../arm-none-eabi/lib/armv7-m\libg_nano.a(lib_a-nano-mallocr.o)
                0x1fff920c                __malloc_sbrk_start
 .bss.__malloc_free_list
                0x1fff9210        0x4 d:/programming/cypress/psoc creator/4.0/psoc creator/import/gnu/arm/4.9.3/bin/../lib/gcc/arm-none-eabi/4.9.3/../../../../arm-none-eabi/lib/armv7-m\libg_nano.a(lib_a-nano-mallocr.o)
                0x1fff9210                __malloc_free_list
 *(COMMON)
 COMMON         0x1fff9214       0xd4 .\CortexM3\ARM_GCC_493\Debug\can_manager.o
                0x1fff9214                LGR_HB
                0x1fff9220                CURTIS_RCVACK
                0x1fff9230                BRAKE
                0x1fff9240                LOGGER_HEARTBEAT
                0x1fff9250                CURTIS_VOLTAGE
                0x1fff9260                THROTTLE
                0x1fff9270                DASH
                0x1fff9280                BMS_STATUS
                0x1fff9290                CURTIS_DEBUG
                0x1fff92a0                data
                0x1fff92a8                CURTIS_RCV
                0x1fff92b8                BMS_VOLTAGE
                0x1fff92c8                BMS_TEMP
                0x1fff92d8                CURTIS_STATUS
 COMMON         0x1fff92e8     0x4004 .\CortexM3\ARM_GCC_493\Debug\sd_manager.o
                0x1fff92e8                sd_queue
                0x1fffd2e8                pfile
 COMMON         0x1fffd2ec       0x10 .\CortexM3\ARM_GCC_493\Debug\time_manager.o
                0x1fffd2ec                current_time
 COMMON         0x1fffd2fc       0x18 .\CortexM3\ARM_GCC_493\Debug\Node-Beaver.a(USBUART_1_cdc.o)
                0x1fffd2fc                USBUART_1_cdcDataInEp
                0x1fffd300                USBUART_1_cdcDataOutEp
                0x1fffd304                USBUART_1_cdcCommInInterruptEp
                0x1fffd308                USBUART_1_serialStateBitmap
                0x1fffd30c                USBUART_1_linesChanged
                0x1fffd310                USBUART_1_linesControlBitmap
 COMMON         0x1fffd314       0x97 .\CortexM3\ARM_GCC_493\Debug\Node-Beaver.a(USBUART_1_drv.o)
                0x1fffd314                USBUART_1_interfaceSettingLast
                0x1fffd316                USBUART_1_ep0Mode
                0x1fffd317                USBUART_1_lastPacketSize
                0x1fffd318                USBUART_1_configurationChanged
                0x1fffd319                USBUART_1_configuration
                0x1fffd31a                USBUART_1_interfaceNumber
                0x1fffd31b                USBUART_1_deviceStatus
                0x1fffd31c                USBUART_1_ep0Toggle
                0x1fffd320                USBUART_1_interfaceClass
                0x1fffd324                USBUART_1_interfaceSetting
                0x1fffd328                USBUART_1_currentTD
                0x1fffd334                USBUART_1_ep0Count
                0x1fffd338                USBUART_1_EP
                0x1fffd3a4                USBUART_1_transferByteCount
                0x1fffd3a6                USBUART_1_transferState
                0x1fffd3a7                USBUART_1_device
                0x1fffd3a8                USBUART_1_interfaceStatus
                0x1fffd3aa                USBUART_1_deviceAddress
 COMMON         0x1fffd3ab        0x1 .\CortexM3\ARM_GCC_493\Debug\Node-Beaver.a(rtc_i2c.o)
                0x1fffd3ab                rtc_i2c_state
 COMMON         0x1fffd3ac        0xe .\CortexM3\ARM_GCC_493\Debug\Node-Beaver.a(rtc_i2c_MASTER.o)
                0x1fffd3ac                rtc_i2c_mstrStatus
                0x1fffd3ad                rtc_i2c_mstrWrBufIndex
                0x1fffd3ae                rtc_i2c_mstrWrBufSize
                0x1fffd3af                rtc_i2c_mstrControl
                0x1fffd3b0                rtc_i2c_mstrRdBufPtr
                0x1fffd3b4                rtc_i2c_mstrWrBufPtr
                0x1fffd3b8                rtc_i2c_mstrRdBufSize
                0x1fffd3b9                rtc_i2c_mstrRdBufIndex
 *fill*         0x1fffd3ba        0x2 
 COMMON         0x1fffd3bc        0x5 .\CortexM3\ARM_GCC_493\Debug\Node-Beaver.a(xbee_UART.o)
                0x1fffd3bc                xbee_UART_rxBuffer
 *fill*         0x1fffd3c1        0x3 
 COMMON         0x1fffd3c4       0x22 .\CortexM3\ARM_GCC_493\Debug\Node-Beaver.a(USBUART_1_descr.o)
                0x1fffd3c4                USBUART_1_idSerialNumberStringDescriptor
 *fill*         0x1fffd3e6        0x2 
 COMMON         0x1fffd3e8       0x84 .\emFile_V322c\LinkLibrary\PSoC5\GCC\libemf16noslfn.a(FS_Core.o)
                0x1fffd3e8                FS_Global
                0x1fffd468                FS_NumBytesAllocated
 COMMON         0x1fffd46c        0x4 d:/programming/cypress/psoc creator/4.0/psoc creator/import/gnu/arm/4.9.3/bin/../lib/gcc/arm-none-eabi/4.9.3/../../../../arm-none-eabi/lib/armv7-m\libg_nano.a(lib_a-reent.o)
                0x1fffd46c                errno
                0x1fffd470                . = ALIGN (0x8)
 *(.ram.b)
                0x1fffd470                _end = .
                0x1fffd470                __end = .
                0x1fffd470                PROVIDE (end, .)
                0x1fffd470                PROVIDE (__bss_end__, .)
                0x0000ab10                __cy_region_init_ram = LOADADDR (.data)
                0x000000a8                __cy_region_init_size_ram = (_edata - ADDR (.data))
                0x000052c0                __cy_region_zero_size_ram = (_end - _edata)

.heap           0x1fffd470     0x1000 load address 0x0000abb8
                0x1fffd470                . = _end
                0x1fffe470                . = (. + 0x1000)
 *fill*         0x1fffd470     0x1000 
                0x1fffe470                __cy_heap_limit = .

.stack          0x20004000     0x4000
                0x20004000                __cy_stack_limit = .
                0x20008000                . = (. + 0x4000)
 *fill*         0x20004000     0x4000 
                0x00000001                ASSERT ((__cy_stack_limit >= __cy_heap_limit), region RAM overflowed with stack)
                0x00000000                cy_checksum_exclude_size = (CY_APPL_LOADABLE == 0x1)?SIZEOF (.cy_checksum_exclude):0x0
                0x00000001                ASSERT ((cy_checksum_exclude_size <= CY_CHECKSUM_EXCLUDE_SIZE), CY_BOOT: Section .cy_checksum_exclude size exceedes specified limit.)

.cyloadermeta
 *(.cyloadermeta)

.cyloadablemeta
 *(.cyloadablemeta)

.cyconfigecc    0x80000000      0xe98
 *(.cyconfigecc)
 .cyconfigecc   0x80000000      0xe98 .\CortexM3\ARM_GCC_493\Debug\cymetadata.o
                0x80000000                cy_meta_configecc

.cycustnvl      0x90000000        0x4
 *(.cycustnvl)
 .cycustnvl     0x90000000        0x4 .\CortexM3\ARM_GCC_493\Debug\cymetadata.o
                0x90000000                cy_meta_custnvl

.cywolatch      0x90100000        0x4
 *(.cywolatch)
 .cywolatch     0x90100000        0x4 .\CortexM3\ARM_GCC_493\Debug\cymetadata.o
                0x90100000                cy_meta_wonvl

.cyeeprom       0x90200000        0x0
 *(.cyeeprom)
                0x00000001                ASSERT ((. <= ((0x90200000 + ee_offset) + ee_size)), .cyeeprom data will not fit in EEPROM)

.cyflashprotect
                0x90400000      0x100
 *(.cyflashprotect)
 .cyflashprotect
                0x90400000      0x100 .\CortexM3\ARM_GCC_493\Debug\cymetadata.o
                0x90400000                cy_meta_flashprotect

.cymeta         0x90500000        0xc
 *(.cymeta)
 .cymeta        0x90500000        0xc .\CortexM3\ARM_GCC_493\Debug\cymetadata.o
                0x90500000                cy_metadata

.rel.dyn        0x0000abb8        0x0 load address 0x9050000c
 .rel.iplt      0x00000000        0x0 d:/programming/cypress/psoc creator/4.0/psoc creator/import/gnu/arm/4.9.3/bin/../lib/gcc/arm-none-eabi/4.9.3/armv7-m/crtbegin.o

.stab
 *(.stab)

.stabstr
 *(.stabstr)

.debug
 *(.debug)

.line
 *(.line)

.debug_srcinfo
 *(.debug_srcinfo)

.debug_sfnames
 *(.debug_sfnames)

.debug_aranges  0x00000000     0x1778
 *(.debug_aranges)
 .debug_aranges
                0x00000000       0x28 .\CortexM3\ARM_GCC_493\Debug\main.o
 .debug_aranges
                0x00000028       0x58 .\CortexM3\ARM_GCC_493\Debug\can_manager.o
 .debug_aranges
                0x00000080       0x60 .\CortexM3\ARM_GCC_493\Debug\sd_manager.o
 .debug_aranges
                0x000000e0       0x38 .\CortexM3\ARM_GCC_493\Debug\usb_manager.o
 .debug_aranges
                0x00000118       0x28 .\CortexM3\ARM_GCC_493\Debug\radio_manager.o
 .debug_aranges
                0x00000140       0x58 .\CortexM3\ARM_GCC_493\Debug\time_manager.o
 .debug_aranges
                0x00000198       0x18 .\CortexM3\ARM_GCC_493\Debug\cymetadata.o
 .debug_aranges
                0x000001b0       0x48 .\CortexM3\ARM_GCC_493\Debug\Cm3Start.o
 .debug_aranges
                0x000001f8       0x60 .\CortexM3\ARM_GCC_493\Debug\Node-Beaver.a(cyfitter_cfg.o)
 .debug_aranges
                0x00000258      0x2a0 .\CortexM3\ARM_GCC_493\Debug\Node-Beaver.a(CyLib.o)
 .debug_aranges
                0x000004f8       0x98 .\CortexM3\ARM_GCC_493\Debug\Node-Beaver.a(cyPm.o)
 .debug_aranges
                0x00000590       0xc8 .\CortexM3\ARM_GCC_493\Debug\Node-Beaver.a(CAN_1.o)
 .debug_aranges
                0x00000658       0x28 .\CortexM3\ARM_GCC_493\Debug\Node-Beaver.a(CAN_1_INT.o)
 .debug_aranges
                0x00000680       0x30 .\CortexM3\ARM_GCC_493\Debug\Node-Beaver.a(CAN_1_TX_RX_func.o)
 .debug_aranges
                0x000006b0       0x38 .\CortexM3\ARM_GCC_493\Debug\Node-Beaver.a(LED.o)
 .debug_aranges
                0x000006e8       0xc8 .\CortexM3\ARM_GCC_493\Debug\Node-Beaver.a(USBUART_1.o)
 .debug_aranges
                0x000007b0       0xe8 .\CortexM3\ARM_GCC_493\Debug\Node-Beaver.a(USBUART_1_cdc.o)
 .debug_aranges
                0x00000898       0x98 .\CortexM3\ARM_GCC_493\Debug\Node-Beaver.a(USBUART_1_drv.o)
 .debug_aranges
                0x00000930       0x40 .\CortexM3\ARM_GCC_493\Debug\Node-Beaver.a(USBUART_1_episr.o)
 .debug_aranges
                0x00000970       0x40 .\CortexM3\ARM_GCC_493\Debug\Node-Beaver.a(USBUART_1_pm.o)
 .debug_aranges
                0x000009b0       0x80 .\CortexM3\ARM_GCC_493\Debug\Node-Beaver.a(USBUART_1_std.o)
 .debug_aranges
                0x00000a30       0x20 .\CortexM3\ARM_GCC_493\Debug\Node-Beaver.a(USBUART_1_vnd.o)
 .debug_aranges
                0x00000a50       0x48 .\CortexM3\ARM_GCC_493\Debug\Node-Beaver.a(USBUART_1_Dp.o)
 .debug_aranges
                0x00000a98       0x80 .\CortexM3\ARM_GCC_493\Debug\Node-Beaver.a(power_isr.o)
 .debug_aranges
                0x00000b18       0x38 .\CortexM3\ARM_GCC_493\Debug\Node-Beaver.a(rtc_i2c.o)
 .debug_aranges
                0x00000b50       0x20 .\CortexM3\ARM_GCC_493\Debug\Node-Beaver.a(rtc_i2c_INT.o)
 .debug_aranges
                0x00000b70       0x38 .\CortexM3\ARM_GCC_493\Debug\Node-Beaver.a(rtc_i2c_PM.o)
 .debug_aranges
                0x00000ba8       0x80 .\CortexM3\ARM_GCC_493\Debug\Node-Beaver.a(rtc_i2c_MASTER.o)
 .debug_aranges
                0x00000c28       0x80 .\CortexM3\ARM_GCC_493\Debug\Node-Beaver.a(time_refresh_isr.o)
 .debug_aranges
                0x00000ca8       0x90 .\CortexM3\ARM_GCC_493\Debug\Node-Beaver.a(millis_timer.o)
 .debug_aranges
                0x00000d38       0x90 .\CortexM3\ARM_GCC_493\Debug\Node-Beaver.a(time_refresh_timer.o)
 .debug_aranges
                0x00000dc8       0x70 .\CortexM3\ARM_GCC_493\Debug\Node-Beaver.a(power_comp.o)
 .debug_aranges
                0x00000e38       0xf0 .\CortexM3\ARM_GCC_493\Debug\Node-Beaver.a(xbee_UART.o)
 .debug_aranges
                0x00000f28       0x20 .\CortexM3\ARM_GCC_493\Debug\Node-Beaver.a(xbee_UART_INT.o)
 .debug_aranges
                0x00000f48       0x70 .\CortexM3\ARM_GCC_493\Debug\Node-Beaver.a(xbee_UART_IntClock.o)
 .debug_aranges
                0x00000fb8       0x90 .\CortexM3\ARM_GCC_493\Debug\Node-Beaver.a(sd_timer.o)
 .debug_aranges
                0x00001048       0x80 .\CortexM3\ARM_GCC_493\Debug\Node-Beaver.a(sd_isr.o)
 .debug_aranges
                0x000010c8       0x90 .\CortexM3\ARM_GCC_493\Debug\Node-Beaver.a(watchdog_timer.o)
 .debug_aranges
                0x00001158       0x80 .\CortexM3\ARM_GCC_493\Debug\Node-Beaver.a(wdt_reset_isr.o)
 .debug_aranges
                0x000011d8       0x80 .\CortexM3\ARM_GCC_493\Debug\Node-Beaver.a(car_state_isr.o)
 .debug_aranges
                0x00001258       0x90 .\CortexM3\ARM_GCC_493\Debug\Node-Beaver.a(car_state_timer.o)
 .debug_aranges
                0x000012e8       0x90 .\CortexM3\ARM_GCC_493\Debug\Node-Beaver.a(heartbeat_timer.o)
 .debug_aranges
                0x00001378       0x80 .\CortexM3\ARM_GCC_493\Debug\Node-Beaver.a(heartbeat_isr.o)
 .debug_aranges
                0x000013f8       0x20 .\CortexM3\ARM_GCC_493\Debug\Node-Beaver.a(CyBootAsmGnu.o)
 .debug_aranges
                0x00001418       0x80 .\CortexM3\ARM_GCC_493\Debug\Node-Beaver.a(CyFlash.o)
 .debug_aranges
                0x00001498       0x78 .\CortexM3\ARM_GCC_493\Debug\Node-Beaver.a(CySpc.o)
 .debug_aranges
                0x00001510       0x20 .\CortexM3\ARM_GCC_493\Debug\Node-Beaver.a(cyutils.o)
 .debug_aranges
                0x00001530       0x20 .\CortexM3\ARM_GCC_493\Debug\Node-Beaver.a(USBUART_1_cls.o)
 .debug_aranges
                0x00001550       0x18 .\CortexM3\ARM_GCC_493\Debug\Node-Beaver.a(USBUART_1_descr.o)
 .debug_aranges
                0x00001568       0x28 .\CortexM3\ARM_GCC_493\Debug\Node-Beaver.a(emFile_1_ConfigMMC_SPI.o)
 .debug_aranges
                0x00001590       0x68 .\CortexM3\ARM_GCC_493\Debug\Node-Beaver.a(emFile_1_MMC_HW_SPI.o)
 .debug_aranges
                0x000015f8       0xd8 .\CortexM3\ARM_GCC_493\Debug\Node-Beaver.a(emFile_1_SPI0.o)
 .debug_aranges
                0x000016d0       0x70 .\CortexM3\ARM_GCC_493\Debug\Node-Beaver.a(emFile_1_Clock_1.o)
 .debug_aranges
                0x00001740       0x38 .\CortexM3\ARM_GCC_493\Debug\Node-Beaver.a(emFile_1_SPI0_CS.o)

.debug_pubnames
 *(.debug_pubnames)

.debug_info     0x00000000     0xacc2
 *(.debug_info .gnu.linkonce.wi.*)
 .debug_info    0x00000000      0x196 .\CortexM3\ARM_GCC_493\Debug\main.o
 .debug_info    0x00000196      0x498 .\CortexM3\ARM_GCC_493\Debug\can_manager.o
 .debug_info    0x0000062e      0x4f9 .\CortexM3\ARM_GCC_493\Debug\sd_manager.o
 .debug_info    0x00000b27      0x21f .\CortexM3\ARM_GCC_493\Debug\usb_manager.o
 .debug_info    0x00000d46      0x1ab .\CortexM3\ARM_GCC_493\Debug\radio_manager.o
 .debug_info    0x00000ef1      0x2b5 .\CortexM3\ARM_GCC_493\Debug\time_manager.o
 .debug_info    0x000011a6      0x13f .\CortexM3\ARM_GCC_493\Debug\cymetadata.o
 .debug_info    0x000012e5      0x319 .\CortexM3\ARM_GCC_493\Debug\Cm3Start.o
 .debug_info    0x000015fe      0x44b .\CortexM3\ARM_GCC_493\Debug\Node-Beaver.a(cyfitter_cfg.o)
 .debug_info    0x00001a49      0xe4a .\CortexM3\ARM_GCC_493\Debug\Node-Beaver.a(CyLib.o)
 .debug_info    0x00002893      0x561 .\CortexM3\ARM_GCC_493\Debug\Node-Beaver.a(cyPm.o)
 .debug_info    0x00002df4      0x781 .\CortexM3\ARM_GCC_493\Debug\Node-Beaver.a(CAN_1.o)
 .debug_info    0x00003575      0x1db .\CortexM3\ARM_GCC_493\Debug\Node-Beaver.a(CAN_1_INT.o)
 .debug_info    0x00003750      0x421 .\CortexM3\ARM_GCC_493\Debug\Node-Beaver.a(CAN_1_TX_RX_func.o)
 .debug_info    0x00003b71      0x11e .\CortexM3\ARM_GCC_493\Debug\Node-Beaver.a(LED.o)
 .debug_info    0x00003c8f      0x70b .\CortexM3\ARM_GCC_493\Debug\Node-Beaver.a(USBUART_1.o)
 .debug_info    0x0000439a      0x903 .\CortexM3\ARM_GCC_493\Debug\Node-Beaver.a(USBUART_1_cdc.o)
 .debug_info    0x00004c9d      0x521 .\CortexM3\ARM_GCC_493\Debug\Node-Beaver.a(USBUART_1_drv.o)
 .debug_info    0x000051be      0x22f .\CortexM3\ARM_GCC_493\Debug\Node-Beaver.a(USBUART_1_episr.o)
 .debug_info    0x000053ed      0x186 .\CortexM3\ARM_GCC_493\Debug\Node-Beaver.a(USBUART_1_pm.o)
 .debug_info    0x00005573      0x950 .\CortexM3\ARM_GCC_493\Debug\Node-Beaver.a(USBUART_1_std.o)
 .debug_info    0x00005ec3      0x19d .\CortexM3\ARM_GCC_493\Debug\Node-Beaver.a(USBUART_1_vnd.o)
 .debug_info    0x00006060      0x171 .\CortexM3\ARM_GCC_493\Debug\Node-Beaver.a(USBUART_1_Dp.o)
 .debug_info    0x000061d1      0x261 .\CortexM3\ARM_GCC_493\Debug\Node-Beaver.a(power_isr.o)
 .debug_info    0x00006432      0x1fa .\CortexM3\ARM_GCC_493\Debug\Node-Beaver.a(rtc_i2c.o)
 .debug_info    0x0000662c      0x14f .\CortexM3\ARM_GCC_493\Debug\Node-Beaver.a(rtc_i2c_INT.o)
 .debug_info    0x0000677b      0x193 .\CortexM3\ARM_GCC_493\Debug\Node-Beaver.a(rtc_i2c_PM.o)
 .debug_info    0x0000690e      0x3f1 .\CortexM3\ARM_GCC_493\Debug\Node-Beaver.a(rtc_i2c_MASTER.o)
 .debug_info    0x00006cff      0x23a .\CortexM3\ARM_GCC_493\Debug\Node-Beaver.a(time_refresh_isr.o)
 .debug_info    0x00006f39      0x254 .\CortexM3\ARM_GCC_493\Debug\Node-Beaver.a(millis_timer.o)
 .debug_info    0x0000718d      0x254 .\CortexM3\ARM_GCC_493\Debug\Node-Beaver.a(time_refresh_timer.o)
 .debug_info    0x000073e1      0x23f .\CortexM3\ARM_GCC_493\Debug\Node-Beaver.a(power_comp.o)
 .debug_info    0x00007620      0x5eb .\CortexM3\ARM_GCC_493\Debug\Node-Beaver.a(xbee_UART.o)
 .debug_info    0x00007c0b      0x142 .\CortexM3\ARM_GCC_493\Debug\Node-Beaver.a(xbee_UART_INT.o)
 .debug_info    0x00007d4d      0x25d .\CortexM3\ARM_GCC_493\Debug\Node-Beaver.a(xbee_UART_IntClock.o)
 .debug_info    0x00007faa      0x254 .\CortexM3\ARM_GCC_493\Debug\Node-Beaver.a(sd_timer.o)
 .debug_info    0x000081fe      0x23a .\CortexM3\ARM_GCC_493\Debug\Node-Beaver.a(sd_isr.o)
 .debug_info    0x00008438      0x254 .\CortexM3\ARM_GCC_493\Debug\Node-Beaver.a(watchdog_timer.o)
 .debug_info    0x0000868c      0x23a .\CortexM3\ARM_GCC_493\Debug\Node-Beaver.a(wdt_reset_isr.o)
 .debug_info    0x000088c6      0x23a .\CortexM3\ARM_GCC_493\Debug\Node-Beaver.a(car_state_isr.o)
 .debug_info    0x00008b00      0x254 .\CortexM3\ARM_GCC_493\Debug\Node-Beaver.a(car_state_timer.o)
 .debug_info    0x00008d54      0x254 .\CortexM3\ARM_GCC_493\Debug\Node-Beaver.a(heartbeat_timer.o)
 .debug_info    0x00008fa8      0x23a .\CortexM3\ARM_GCC_493\Debug\Node-Beaver.a(heartbeat_isr.o)
 .debug_info    0x000091e2       0x8b .\CortexM3\ARM_GCC_493\Debug\Node-Beaver.a(CyBootAsmGnu.o)
 .debug_info    0x0000926d      0x36a .\CortexM3\ARM_GCC_493\Debug\Node-Beaver.a(CyFlash.o)
 .debug_info    0x000095d7      0x453 .\CortexM3\ARM_GCC_493\Debug\Node-Beaver.a(CySpc.o)
 .debug_info    0x00009a2a       0xef .\CortexM3\ARM_GCC_493\Debug\Node-Beaver.a(cyutils.o)
 .debug_info    0x00009b19      0x1bc .\CortexM3\ARM_GCC_493\Debug\Node-Beaver.a(USBUART_1_cls.o)
 .debug_info    0x00009cd5      0x2cb .\CortexM3\ARM_GCC_493\Debug\Node-Beaver.a(USBUART_1_descr.o)
 .debug_info    0x00009fa0      0x281 .\CortexM3\ARM_GCC_493\Debug\Node-Beaver.a(emFile_1_ConfigMMC_SPI.o)
 .debug_info    0x0000a221      0x339 .\CortexM3\ARM_GCC_493\Debug\Node-Beaver.a(emFile_1_MMC_HW_SPI.o)
 .debug_info    0x0000a55a      0x3ed .\CortexM3\ARM_GCC_493\Debug\Node-Beaver.a(emFile_1_SPI0.o)
 .debug_info    0x0000a947      0x25d .\CortexM3\ARM_GCC_493\Debug\Node-Beaver.a(emFile_1_Clock_1.o)
 .debug_info    0x0000aba4      0x11e .\CortexM3\ARM_GCC_493\Debug\Node-Beaver.a(emFile_1_SPI0_CS.o)

.debug_abbrev   0x00000000     0x3e7f
 *(.debug_abbrev)
 .debug_abbrev  0x00000000       0xe9 .\CortexM3\ARM_GCC_493\Debug\main.o
 .debug_abbrev  0x000000e9      0x1aa .\CortexM3\ARM_GCC_493\Debug\can_manager.o
 .debug_abbrev  0x00000293      0x1a9 .\CortexM3\ARM_GCC_493\Debug\sd_manager.o
 .debug_abbrev  0x0000043c      0x11b .\CortexM3\ARM_GCC_493\Debug\usb_manager.o
 .debug_abbrev  0x00000557       0xe5 .\CortexM3\ARM_GCC_493\Debug\radio_manager.o
 .debug_abbrev  0x0000063c      0x151 .\CortexM3\ARM_GCC_493\Debug\time_manager.o
 .debug_abbrev  0x0000078d       0x77 .\CortexM3\ARM_GCC_493\Debug\cymetadata.o
 .debug_abbrev  0x00000804      0x1b6 .\CortexM3\ARM_GCC_493\Debug\Cm3Start.o
 .debug_abbrev  0x000009ba      0x1b7 .\CortexM3\ARM_GCC_493\Debug\Node-Beaver.a(cyfitter_cfg.o)
 .debug_abbrev  0x00000b71      0x217 .\CortexM3\ARM_GCC_493\Debug\Node-Beaver.a(CyLib.o)
 .debug_abbrev  0x00000d88      0x161 .\CortexM3\ARM_GCC_493\Debug\Node-Beaver.a(cyPm.o)
 .debug_abbrev  0x00000ee9      0x153 .\CortexM3\ARM_GCC_493\Debug\Node-Beaver.a(CAN_1.o)
 .debug_abbrev  0x0000103c       0xba .\CortexM3\ARM_GCC_493\Debug\Node-Beaver.a(CAN_1_INT.o)
 .debug_abbrev  0x000010f6      0x15c .\CortexM3\ARM_GCC_493\Debug\Node-Beaver.a(CAN_1_TX_RX_func.o)
 .debug_abbrev  0x00001252       0x90 .\CortexM3\ARM_GCC_493\Debug\Node-Beaver.a(LED.o)
 .debug_abbrev  0x000012e2      0x1f3 .\CortexM3\ARM_GCC_493\Debug\Node-Beaver.a(USBUART_1.o)
 .debug_abbrev  0x000014d5      0x233 .\CortexM3\ARM_GCC_493\Debug\Node-Beaver.a(USBUART_1_cdc.o)
 .debug_abbrev  0x00001708      0x161 .\CortexM3\ARM_GCC_493\Debug\Node-Beaver.a(USBUART_1_drv.o)
 .debug_abbrev  0x00001869       0xfd .\CortexM3\ARM_GCC_493\Debug\Node-Beaver.a(USBUART_1_episr.o)
 .debug_abbrev  0x00001966       0xd1 .\CortexM3\ARM_GCC_493\Debug\Node-Beaver.a(USBUART_1_pm.o)
 .debug_abbrev  0x00001a37      0x1c2 .\CortexM3\ARM_GCC_493\Debug\Node-Beaver.a(USBUART_1_std.o)
 .debug_abbrev  0x00001bf9       0xc5 .\CortexM3\ARM_GCC_493\Debug\Node-Beaver.a(USBUART_1_vnd.o)
 .debug_abbrev  0x00001cbe       0x90 .\CortexM3\ARM_GCC_493\Debug\Node-Beaver.a(USBUART_1_Dp.o)
 .debug_abbrev  0x00001d4e      0x178 .\CortexM3\ARM_GCC_493\Debug\Node-Beaver.a(power_isr.o)
 .debug_abbrev  0x00001ec6       0xe2 .\CortexM3\ARM_GCC_493\Debug\Node-Beaver.a(rtc_i2c.o)
 .debug_abbrev  0x00001fa8       0x81 .\CortexM3\ARM_GCC_493\Debug\Node-Beaver.a(rtc_i2c_INT.o)
 .debug_abbrev  0x00002029       0xf8 .\CortexM3\ARM_GCC_493\Debug\Node-Beaver.a(rtc_i2c_PM.o)
 .debug_abbrev  0x00002121      0x11e .\CortexM3\ARM_GCC_493\Debug\Node-Beaver.a(rtc_i2c_MASTER.o)
 .debug_abbrev  0x0000223f      0x172 .\CortexM3\ARM_GCC_493\Debug\Node-Beaver.a(time_refresh_isr.o)
 .debug_abbrev  0x000023b1      0x11b .\CortexM3\ARM_GCC_493\Debug\Node-Beaver.a(millis_timer.o)
 .debug_abbrev  0x000024cc      0x135 .\CortexM3\ARM_GCC_493\Debug\Node-Beaver.a(time_refresh_timer.o)
 .debug_abbrev  0x00002601      0x146 .\CortexM3\ARM_GCC_493\Debug\Node-Beaver.a(power_comp.o)
 .debug_abbrev  0x00002747      0x15f .\CortexM3\ARM_GCC_493\Debug\Node-Beaver.a(xbee_UART.o)
 .debug_abbrev  0x000028a6       0x8a .\CortexM3\ARM_GCC_493\Debug\Node-Beaver.a(xbee_UART_INT.o)
 .debug_abbrev  0x00002930      0x11d .\CortexM3\ARM_GCC_493\Debug\Node-Beaver.a(xbee_UART_IntClock.o)
 .debug_abbrev  0x00002a4d      0x135 .\CortexM3\ARM_GCC_493\Debug\Node-Beaver.a(sd_timer.o)
 .debug_abbrev  0x00002b82      0x172 .\CortexM3\ARM_GCC_493\Debug\Node-Beaver.a(sd_isr.o)
 .debug_abbrev  0x00002cf4      0x11b .\CortexM3\ARM_GCC_493\Debug\Node-Beaver.a(watchdog_timer.o)
 .debug_abbrev  0x00002e0f      0x172 .\CortexM3\ARM_GCC_493\Debug\Node-Beaver.a(wdt_reset_isr.o)
 .debug_abbrev  0x00002f81      0x172 .\CortexM3\ARM_GCC_493\Debug\Node-Beaver.a(car_state_isr.o)
 .debug_abbrev  0x000030f3      0x11b .\CortexM3\ARM_GCC_493\Debug\Node-Beaver.a(car_state_timer.o)
 .debug_abbrev  0x0000320e      0x11b .\CortexM3\ARM_GCC_493\Debug\Node-Beaver.a(heartbeat_timer.o)
 .debug_abbrev  0x00003329      0x172 .\CortexM3\ARM_GCC_493\Debug\Node-Beaver.a(heartbeat_isr.o)
 .debug_abbrev  0x0000349b       0x14 .\CortexM3\ARM_GCC_493\Debug\Node-Beaver.a(CyBootAsmGnu.o)
 .debug_abbrev  0x000034af      0x13c .\CortexM3\ARM_GCC_493\Debug\Node-Beaver.a(CyFlash.o)
 .debug_abbrev  0x000035eb      0x16c .\CortexM3\ARM_GCC_493\Debug\Node-Beaver.a(CySpc.o)
 .debug_abbrev  0x00003757       0x7f .\CortexM3\ARM_GCC_493\Debug\Node-Beaver.a(cyutils.o)
 .debug_abbrev  0x000037d6       0xc5 .\CortexM3\ARM_GCC_493\Debug\Node-Beaver.a(USBUART_1_cls.o)
 .debug_abbrev  0x0000389b       0xb4 .\CortexM3\ARM_GCC_493\Debug\Node-Beaver.a(USBUART_1_descr.o)
 .debug_abbrev  0x0000394f      0x101 .\CortexM3\ARM_GCC_493\Debug\Node-Beaver.a(emFile_1_ConfigMMC_SPI.o)
 .debug_abbrev  0x00003a50      0x12c .\CortexM3\ARM_GCC_493\Debug\Node-Beaver.a(emFile_1_MMC_HW_SPI.o)
 .debug_abbrev  0x00003b7c      0x156 .\CortexM3\ARM_GCC_493\Debug\Node-Beaver.a(emFile_1_SPI0.o)
 .debug_abbrev  0x00003cd2      0x11d .\CortexM3\ARM_GCC_493\Debug\Node-Beaver.a(emFile_1_Clock_1.o)
 .debug_abbrev  0x00003def       0x90 .\CortexM3\ARM_GCC_493\Debug\Node-Beaver.a(emFile_1_SPI0_CS.o)

.debug_line     0x00000000     0x5f40
 *(.debug_line)
 .debug_line    0x00000000      0x16f .\CortexM3\ARM_GCC_493\Debug\main.o
 .debug_line    0x0000016f      0x364 .\CortexM3\ARM_GCC_493\Debug\can_manager.o
 .debug_line    0x000004d3      0x360 .\CortexM3\ARM_GCC_493\Debug\sd_manager.o
 .debug_line    0x00000833      0x1a3 .\CortexM3\ARM_GCC_493\Debug\usb_manager.o
 .debug_line    0x000009d6      0x17a .\CortexM3\ARM_GCC_493\Debug\radio_manager.o
 .debug_line    0x00000b50      0x22e .\CortexM3\ARM_GCC_493\Debug\time_manager.o
 .debug_line    0x00000d7e       0x51 .\CortexM3\ARM_GCC_493\Debug\cymetadata.o
 .debug_line    0x00000dcf      0x1d4 .\CortexM3\ARM_GCC_493\Debug\Cm3Start.o
 .debug_line    0x00000fa3      0x21c .\CortexM3\ARM_GCC_493\Debug\Node-Beaver.a(cyfitter_cfg.o)
 .debug_line    0x000011bf      0x882 .\CortexM3\ARM_GCC_493\Debug\Node-Beaver.a(CyLib.o)
 .debug_line    0x00001a41      0x37f .\CortexM3\ARM_GCC_493\Debug\Node-Beaver.a(cyPm.o)
 .debug_line    0x00001dc0      0x348 .\CortexM3\ARM_GCC_493\Debug\Node-Beaver.a(CAN_1.o)
 .debug_line    0x00002108       0xa1 .\CortexM3\ARM_GCC_493\Debug\Node-Beaver.a(CAN_1_INT.o)
 .debug_line    0x000021a9      0x22e .\CortexM3\ARM_GCC_493\Debug\Node-Beaver.a(CAN_1_TX_RX_func.o)
 .debug_line    0x000023d7       0x92 .\CortexM3\ARM_GCC_493\Debug\Node-Beaver.a(LED.o)
 .debug_line    0x00002469      0x30c .\CortexM3\ARM_GCC_493\Debug\Node-Beaver.a(USBUART_1.o)
 .debug_line    0x00002775      0x312 .\CortexM3\ARM_GCC_493\Debug\Node-Beaver.a(USBUART_1_cdc.o)
 .debug_line    0x00002a87      0x21e .\CortexM3\ARM_GCC_493\Debug\Node-Beaver.a(USBUART_1_drv.o)
 .debug_line    0x00002ca5       0xf8 .\CortexM3\ARM_GCC_493\Debug\Node-Beaver.a(USBUART_1_episr.o)
 .debug_line    0x00002d9d       0xea .\CortexM3\ARM_GCC_493\Debug\Node-Beaver.a(USBUART_1_pm.o)
 .debug_line    0x00002e87      0x45c .\CortexM3\ARM_GCC_493\Debug\Node-Beaver.a(USBUART_1_std.o)
 .debug_line    0x000032e3       0x95 .\CortexM3\ARM_GCC_493\Debug\Node-Beaver.a(USBUART_1_vnd.o)
 .debug_line    0x00003378       0xc0 .\CortexM3\ARM_GCC_493\Debug\Node-Beaver.a(USBUART_1_Dp.o)
 .debug_line    0x00003438      0x251 .\CortexM3\ARM_GCC_493\Debug\Node-Beaver.a(power_isr.o)
 .debug_line    0x00003689       0xe1 .\CortexM3\ARM_GCC_493\Debug\Node-Beaver.a(rtc_i2c.o)
 .debug_line    0x0000376a      0x11a .\CortexM3\ARM_GCC_493\Debug\Node-Beaver.a(rtc_i2c_INT.o)
 .debug_line    0x00003884       0xc0 .\CortexM3\ARM_GCC_493\Debug\Node-Beaver.a(rtc_i2c_PM.o)
 .debug_line    0x00003944      0x1ef .\CortexM3\ARM_GCC_493\Debug\Node-Beaver.a(rtc_i2c_MASTER.o)
 .debug_line    0x00003b33      0x15b .\CortexM3\ARM_GCC_493\Debug\Node-Beaver.a(time_refresh_isr.o)
 .debug_line    0x00003c8e      0x175 .\CortexM3\ARM_GCC_493\Debug\Node-Beaver.a(millis_timer.o)
 .debug_line    0x00003e03      0x17b .\CortexM3\ARM_GCC_493\Debug\Node-Beaver.a(time_refresh_timer.o)
 .debug_line    0x00003f7e      0x16f .\CortexM3\ARM_GCC_493\Debug\Node-Beaver.a(power_comp.o)
 .debug_line    0x000040ed      0x30f .\CortexM3\ARM_GCC_493\Debug\Node-Beaver.a(xbee_UART.o)
 .debug_line    0x000043fc       0x90 .\CortexM3\ARM_GCC_493\Debug\Node-Beaver.a(xbee_UART_INT.o)
 .debug_line    0x0000448c      0x1ad .\CortexM3\ARM_GCC_493\Debug\Node-Beaver.a(xbee_UART_IntClock.o)
 .debug_line    0x00004639      0x171 .\CortexM3\ARM_GCC_493\Debug\Node-Beaver.a(sd_timer.o)
 .debug_line    0x000047aa      0x151 .\CortexM3\ARM_GCC_493\Debug\Node-Beaver.a(sd_isr.o)
 .debug_line    0x000048fb      0x177 .\CortexM3\ARM_GCC_493\Debug\Node-Beaver.a(watchdog_timer.o)
 .debug_line    0x00004a72      0x158 .\CortexM3\ARM_GCC_493\Debug\Node-Beaver.a(wdt_reset_isr.o)
 .debug_line    0x00004bca      0x158 .\CortexM3\ARM_GCC_493\Debug\Node-Beaver.a(car_state_isr.o)
 .debug_line    0x00004d22      0x178 .\CortexM3\ARM_GCC_493\Debug\Node-Beaver.a(car_state_timer.o)
 .debug_line    0x00004e9a      0x178 .\CortexM3\ARM_GCC_493\Debug\Node-Beaver.a(heartbeat_timer.o)
 .debug_line    0x00005012      0x158 .\CortexM3\ARM_GCC_493\Debug\Node-Beaver.a(heartbeat_isr.o)
 .debug_line    0x0000516a       0x66 .\CortexM3\ARM_GCC_493\Debug\Node-Beaver.a(CyBootAsmGnu.o)
 .debug_line    0x000051d0      0x205 .\CortexM3\ARM_GCC_493\Debug\Node-Beaver.a(CyFlash.o)
 .debug_line    0x000053d5      0x215 .\CortexM3\ARM_GCC_493\Debug\Node-Beaver.a(CySpc.o)
 .debug_line    0x000055ea       0x62 .\CortexM3\ARM_GCC_493\Debug\Node-Beaver.a(cyutils.o)
 .debug_line    0x0000564c       0x9b .\CortexM3\ARM_GCC_493\Debug\Node-Beaver.a(USBUART_1_cls.o)
 .debug_line    0x000056e7       0x65 .\CortexM3\ARM_GCC_493\Debug\Node-Beaver.a(USBUART_1_descr.o)
 .debug_line    0x0000574c       0xb7 .\CortexM3\ARM_GCC_493\Debug\Node-Beaver.a(emFile_1_ConfigMMC_SPI.o)
 .debug_line    0x00005803      0x28a .\CortexM3\ARM_GCC_493\Debug\Node-Beaver.a(emFile_1_MMC_HW_SPI.o)
 .debug_line    0x00005a8d      0x269 .\CortexM3\ARM_GCC_493\Debug\Node-Beaver.a(emFile_1_SPI0.o)
 .debug_line    0x00005cf6      0x1ab .\CortexM3\ARM_GCC_493\Debug\Node-Beaver.a(emFile_1_Clock_1.o)
 .debug_line    0x00005ea1       0x9f .\CortexM3\ARM_GCC_493\Debug\Node-Beaver.a(emFile_1_SPI0_CS.o)

.debug_frame    0x00000000     0x5e30
 *(.debug_frame)
 .debug_frame   0x00000000       0x58 .\CortexM3\ARM_GCC_493\Debug\main.o
 .debug_frame   0x00000058      0x138 .\CortexM3\ARM_GCC_493\Debug\can_manager.o
 .debug_frame   0x00000190      0x178 .\CortexM3\ARM_GCC_493\Debug\sd_manager.o
 .debug_frame   0x00000308       0xa4 .\CortexM3\ARM_GCC_493\Debug\usb_manager.o
 .debug_frame   0x000003ac       0x54 .\CortexM3\ARM_GCC_493\Debug\radio_manager.o
 .debug_frame   0x00000400      0x140 .\CortexM3\ARM_GCC_493\Debug\time_manager.o
 .debug_frame   0x00000540       0xd8 .\CortexM3\ARM_GCC_493\Debug\Cm3Start.o
 .debug_frame   0x00000618      0x16c .\CortexM3\ARM_GCC_493\Debug\Node-Beaver.a(cyfitter_cfg.o)
 .debug_frame   0x00000784      0xc0c .\CortexM3\ARM_GCC_493\Debug\Node-Beaver.a(CyLib.o)
 .debug_frame   0x00001390      0x234 .\CortexM3\ARM_GCC_493\Debug\Node-Beaver.a(cyPm.o)
 .debug_frame   0x000015c4      0x374 .\CortexM3\ARM_GCC_493\Debug\Node-Beaver.a(CAN_1.o)
 .debug_frame   0x00001938       0x54 .\CortexM3\ARM_GCC_493\Debug\Node-Beaver.a(CAN_1_INT.o)
 .debug_frame   0x0000198c       0x88 .\CortexM3\ARM_GCC_493\Debug\Node-Beaver.a(CAN_1_TX_RX_func.o)
 .debug_frame   0x00001a14       0xa8 .\CortexM3\ARM_GCC_493\Debug\Node-Beaver.a(LED.o)
 .debug_frame   0x00001abc      0x37c .\CortexM3\ARM_GCC_493\Debug\Node-Beaver.a(USBUART_1.o)
 .debug_frame   0x00001e38      0x3ec .\CortexM3\ARM_GCC_493\Debug\Node-Beaver.a(USBUART_1_cdc.o)
 .debug_frame   0x00002224      0x23c .\CortexM3\ARM_GCC_493\Debug\Node-Beaver.a(USBUART_1_drv.o)
 .debug_frame   0x00002460       0xbc .\CortexM3\ARM_GCC_493\Debug\Node-Beaver.a(USBUART_1_episr.o)
 .debug_frame   0x0000251c       0xbc .\CortexM3\ARM_GCC_493\Debug\Node-Beaver.a(USBUART_1_pm.o)
 .debug_frame   0x000025d8      0x224 .\CortexM3\ARM_GCC_493\Debug\Node-Beaver.a(USBUART_1_std.o)
 .debug_frame   0x000027fc       0x38 .\CortexM3\ARM_GCC_493\Debug\Node-Beaver.a(USBUART_1_vnd.o)
 .debug_frame   0x00002834       0xf4 .\CortexM3\ARM_GCC_493\Debug\Node-Beaver.a(USBUART_1_Dp.o)
 .debug_frame   0x00002928      0x1e0 .\CortexM3\ARM_GCC_493\Debug\Node-Beaver.a(power_isr.o)
 .debug_frame   0x00002b08       0x98 .\CortexM3\ARM_GCC_493\Debug\Node-Beaver.a(rtc_i2c.o)
 .debug_frame   0x00002ba0       0x38 .\CortexM3\ARM_GCC_493\Debug\Node-Beaver.a(rtc_i2c_INT.o)
 .debug_frame   0x00002bd8       0x94 .\CortexM3\ARM_GCC_493\Debug\Node-Beaver.a(rtc_i2c_PM.o)
 .debug_frame   0x00002c6c      0x208 .\CortexM3\ARM_GCC_493\Debug\Node-Beaver.a(rtc_i2c_MASTER.o)
 .debug_frame   0x00002e74      0x1e8 .\CortexM3\ARM_GCC_493\Debug\Node-Beaver.a(time_refresh_isr.o)
 .debug_frame   0x0000305c      0x230 .\CortexM3\ARM_GCC_493\Debug\Node-Beaver.a(millis_timer.o)
 .debug_frame   0x0000328c      0x230 .\CortexM3\ARM_GCC_493\Debug\Node-Beaver.a(time_refresh_timer.o)
 .debug_frame   0x000034bc      0x19c .\CortexM3\ARM_GCC_493\Debug\Node-Beaver.a(power_comp.o)
 .debug_frame   0x00003658      0x428 .\CortexM3\ARM_GCC_493\Debug\Node-Beaver.a(xbee_UART.o)
 .debug_frame   0x00003a80       0x38 .\CortexM3\ARM_GCC_493\Debug\Node-Beaver.a(xbee_UART_INT.o)
 .debug_frame   0x00003ab8      0x1b4 .\CortexM3\ARM_GCC_493\Debug\Node-Beaver.a(xbee_UART_IntClock.o)
 .debug_frame   0x00003c6c      0x230 .\CortexM3\ARM_GCC_493\Debug\Node-Beaver.a(sd_timer.o)
 .debug_frame   0x00003e9c      0x1e8 .\CortexM3\ARM_GCC_493\Debug\Node-Beaver.a(sd_isr.o)
 .debug_frame   0x00004084      0x230 .\CortexM3\ARM_GCC_493\Debug\Node-Beaver.a(watchdog_timer.o)
 .debug_frame   0x000042b4      0x1e8 .\CortexM3\ARM_GCC_493\Debug\Node-Beaver.a(wdt_reset_isr.o)
 .debug_frame   0x0000449c      0x1e8 .\CortexM3\ARM_GCC_493\Debug\Node-Beaver.a(car_state_isr.o)
 .debug_frame   0x00004684      0x230 .\CortexM3\ARM_GCC_493\Debug\Node-Beaver.a(car_state_timer.o)
 .debug_frame   0x000048b4      0x230 .\CortexM3\ARM_GCC_493\Debug\Node-Beaver.a(heartbeat_timer.o)
 .debug_frame   0x00004ae4      0x1e8 .\CortexM3\ARM_GCC_493\Debug\Node-Beaver.a(heartbeat_isr.o)
 .debug_frame   0x00004ccc      0x210 .\CortexM3\ARM_GCC_493\Debug\Node-Beaver.a(CyFlash.o)
 .debug_frame   0x00004edc      0x1f8 .\CortexM3\ARM_GCC_493\Debug\Node-Beaver.a(CySpc.o)
 .debug_frame   0x000050d4       0x38 .\CortexM3\ARM_GCC_493\Debug\Node-Beaver.a(cyutils.o)
 .debug_frame   0x0000510c       0x38 .\CortexM3\ARM_GCC_493\Debug\Node-Beaver.a(USBUART_1_cls.o)
 .debug_frame   0x00005144       0x54 .\CortexM3\ARM_GCC_493\Debug\Node-Beaver.a(emFile_1_ConfigMMC_SPI.o)
 .debug_frame   0x00005198      0x1a0 .\CortexM3\ARM_GCC_493\Debug\Node-Beaver.a(emFile_1_MMC_HW_SPI.o)
 .debug_frame   0x00005338      0x38c .\CortexM3\ARM_GCC_493\Debug\Node-Beaver.a(emFile_1_SPI0.o)
 .debug_frame   0x000056c4      0x1b4 .\CortexM3\ARM_GCC_493\Debug\Node-Beaver.a(emFile_1_Clock_1.o)
 .debug_frame   0x00005878       0xa8 .\CortexM3\ARM_GCC_493\Debug\Node-Beaver.a(emFile_1_SPI0_CS.o)
 .debug_frame   0x00005920       0x30 d:/programming/cypress/psoc creator/4.0/psoc creator/import/gnu/arm/4.9.3/bin/../lib/gcc/arm-none-eabi/4.9.3/../../../../arm-none-eabi/lib/armv7-m\libg_nano.a(lib_a-atoi.o)
 .debug_frame   0x00005950       0x20 d:/programming/cypress/psoc creator/4.0/psoc creator/import/gnu/arm/4.9.3/bin/../lib/gcc/arm-none-eabi/4.9.3/../../../../arm-none-eabi/lib/armv7-m\libg_nano.a(lib_a-errno.o)
 .debug_frame   0x00005970       0x28 d:/programming/cypress/psoc creator/4.0/psoc creator/import/gnu/arm/4.9.3/bin/../lib/gcc/arm-none-eabi/4.9.3/../../../../arm-none-eabi/lib/armv7-m\libg_nano.a(lib_a-exit.o)
 .debug_frame   0x00005998       0x2c d:/programming/cypress/psoc creator/4.0/psoc creator/import/gnu/arm/4.9.3/bin/../lib/gcc/arm-none-eabi/4.9.3/../../../../arm-none-eabi/lib/armv7-m\libg_nano.a(lib_a-init.o)
 .debug_frame   0x000059c4       0x28 d:/programming/cypress/psoc creator/4.0/psoc creator/import/gnu/arm/4.9.3/bin/../lib/gcc/arm-none-eabi/4.9.3/../../../../arm-none-eabi/lib/armv7-m\libg_nano.a(lib_a-memcmp.o)
 .debug_frame   0x000059ec       0x28 d:/programming/cypress/psoc creator/4.0/psoc creator/import/gnu/arm/4.9.3/bin/../lib/gcc/arm-none-eabi/4.9.3/../../../../arm-none-eabi/lib/armv7-m\libg_nano.a(lib_a-memcpy.o)
 .debug_frame   0x00005a14       0x20 d:/programming/cypress/psoc creator/4.0/psoc creator/import/gnu/arm/4.9.3/bin/../lib/gcc/arm-none-eabi/4.9.3/../../../../arm-none-eabi/lib/armv7-m\libg_nano.a(lib_a-memset.o)
 .debug_frame   0x00005a34       0x70 d:/programming/cypress/psoc creator/4.0/psoc creator/import/gnu/arm/4.9.3/bin/../lib/gcc/arm-none-eabi/4.9.3/../../../../arm-none-eabi/lib/armv7-m\libg_nano.a(lib_a-sprintf.o)
 .debug_frame   0x00005aa4       0x20 d:/programming/cypress/psoc creator/4.0/psoc creator/import/gnu/arm/4.9.3/bin/../lib/gcc/arm-none-eabi/4.9.3/../../../../arm-none-eabi/lib/armv7-m\libg_nano.a(lib_a-strlen.o)
 .debug_frame   0x00005ac4       0x38 d:/programming/cypress/psoc creator/4.0/psoc creator/import/gnu/arm/4.9.3/bin/../lib/gcc/arm-none-eabi/4.9.3/../../../../arm-none-eabi/lib/armv7-m\libg_nano.a(lib_a-strtok.o)
 .debug_frame   0x00005afc       0x40 d:/programming/cypress/psoc creator/4.0/psoc creator/import/gnu/arm/4.9.3/bin/../lib/gcc/arm-none-eabi/4.9.3/../../../../arm-none-eabi/lib/armv7-m\libg_nano.a(lib_a-strtok_r.o)
 .debug_frame   0x00005b3c       0x54 d:/programming/cypress/psoc creator/4.0/psoc creator/import/gnu/arm/4.9.3/bin/../lib/gcc/arm-none-eabi/4.9.3/../../../../arm-none-eabi/lib/armv7-m\libg_nano.a(lib_a-strtol.o)
 .debug_frame   0x00005b90       0x30 d:/programming/cypress/psoc creator/4.0/psoc creator/import/gnu/arm/4.9.3/bin/../lib/gcc/arm-none-eabi/4.9.3/../../../../arm-none-eabi/lib/armv7-m\libg_nano.a(lib_a-malloc.o)
 .debug_frame   0x00005bc0       0x2c d:/programming/cypress/psoc creator/4.0/psoc creator/import/gnu/arm/4.9.3/bin/../lib/gcc/arm-none-eabi/4.9.3/../../../../arm-none-eabi/lib/armv7-m\libg_nano.a(lib_a-nano-freer.o)
 .debug_frame   0x00005bec       0x2c d:/programming/cypress/psoc creator/4.0/psoc creator/import/gnu/arm/4.9.3/bin/../lib/gcc/arm-none-eabi/4.9.3/../../../../arm-none-eabi/lib/armv7-m\libg_nano.a(lib_a-nano-mallocr.o)
 .debug_frame   0x00005c18       0x8c d:/programming/cypress/psoc creator/4.0/psoc creator/import/gnu/arm/4.9.3/bin/../lib/gcc/arm-none-eabi/4.9.3/../../../../arm-none-eabi/lib/armv7-m\libg_nano.a(lib_a-nano-svfprintf.o)
 .debug_frame   0x00005ca4       0x58 d:/programming/cypress/psoc creator/4.0/psoc creator/import/gnu/arm/4.9.3/bin/../lib/gcc/arm-none-eabi/4.9.3/../../../../arm-none-eabi/lib/armv7-m\libg_nano.a(lib_a-nano-vfprintf_i.o)
 .debug_frame   0x00005cfc       0x2c d:/programming/cypress/psoc creator/4.0/psoc creator/import/gnu/arm/4.9.3/bin/../lib/gcc/arm-none-eabi/4.9.3/../../../../arm-none-eabi/lib/armv7-m\libg_nano.a(lib_a-sbrkr.o)
 .debug_frame   0x00005d28       0x28 d:/programming/cypress/psoc creator/4.0/psoc creator/import/gnu/arm/4.9.3/bin/../lib/gcc/arm-none-eabi/4.9.3/../../../../arm-none-eabi/lib/armv7-m\libg_nano.a(lib_a-memchr.o)
 .debug_frame   0x00005d50       0x28 d:/programming/cypress/psoc creator/4.0/psoc creator/import/gnu/arm/4.9.3/bin/../lib/gcc/arm-none-eabi/4.9.3/../../../../arm-none-eabi/lib/armv7-m\libg_nano.a(lib_a-memmove.o)
 .debug_frame   0x00005d78       0x3c d:/programming/cypress/psoc creator/4.0/psoc creator/import/gnu/arm/4.9.3/bin/../lib/gcc/arm-none-eabi/4.9.3/../../../../arm-none-eabi/lib/armv7-m\libg_nano.a(lib_a-nano-reallocr.o)
 .debug_frame   0x00005db4       0x5c d:/programming/cypress/psoc creator/4.0/psoc creator/import/gnu/arm/4.9.3/bin/../lib/gcc/arm-none-eabi/4.9.3/../../../../arm-none-eabi/lib/armv7-m\libg_nano.a(lib_a-reent.o)
 .debug_frame   0x00005e10       0x20 d:/programming/cypress/psoc creator/4.0/psoc creator/import/gnu/arm/4.9.3/bin/../lib/gcc/arm-none-eabi/4.9.3/../../../../arm-none-eabi/lib/armv7-m\libg_nano.a(lib_a-nano-msizer.o)

.debug_str      0x00000000     0x538f
 *(.debug_str)
 .debug_str     0x00000000      0x1ac .\CortexM3\ARM_GCC_493\Debug\main.o
                                0x20c (size before relaxing)
 .debug_str     0x000001ac      0x1b0 .\CortexM3\ARM_GCC_493\Debug\can_manager.o
                                0x3a6 (size before relaxing)
 .debug_str     0x0000035c      0x169 .\CortexM3\ARM_GCC_493\Debug\sd_manager.o
                                0x36e (size before relaxing)
 .debug_str     0x000004c5       0x5e .\CortexM3\ARM_GCC_493\Debug\usb_manager.o
                                0x251 (size before relaxing)
 .debug_str     0x00000523       0x40 .\CortexM3\ARM_GCC_493\Debug\radio_manager.o
                                0x227 (size before relaxing)
 .debug_str     0x00000563       0x84 .\CortexM3\ARM_GCC_493\Debug\time_manager.o
                                0x2b2 (size before relaxing)
 .debug_str     0x000005e7       0x75 .\CortexM3\ARM_GCC_493\Debug\cymetadata.o
                                0x1e5 (size before relaxing)
 .debug_str     0x0000065c      0x12a .\CortexM3\ARM_GCC_493\Debug\Cm3Start.o
                                0x2c6 (size before relaxing)
 .debug_str     0x00000786      0x18a .\CortexM3\ARM_GCC_493\Debug\Node-Beaver.a(cyfitter_cfg.o)
                                0x327 (size before relaxing)
 .debug_str     0x00000910      0x7ea .\CortexM3\ARM_GCC_493\Debug\Node-Beaver.a(CyLib.o)
                                0x9d9 (size before relaxing)
 .debug_str     0x000010fa      0x365 .\CortexM3\ARM_GCC_493\Debug\Node-Beaver.a(cyPm.o)
                                0x526 (size before relaxing)
 .debug_str     0x0000145f      0x31c .\CortexM3\ARM_GCC_493\Debug\Node-Beaver.a(CAN_1.o)
                                0x4c3 (size before relaxing)
 .debug_str     0x0000177b       0x50 .\CortexM3\ARM_GCC_493\Debug\Node-Beaver.a(CAN_1_INT.o)
                                0x231 (size before relaxing)
 .debug_str     0x000017cb       0x85 .\CortexM3\ARM_GCC_493\Debug\Node-Beaver.a(CAN_1_TX_RX_func.o)
                                0x344 (size before relaxing)
 .debug_str     0x00001850       0x5c .\CortexM3\ARM_GCC_493\Debug\Node-Beaver.a(LED.o)
                                0x1d3 (size before relaxing)
 .debug_str     0x000018ac      0x45e .\CortexM3\ARM_GCC_493\Debug\Node-Beaver.a(USBUART_1.o)
                                0x628 (size before relaxing)
 .debug_str     0x00001d0a      0x528 .\CortexM3\ARM_GCC_493\Debug\Node-Beaver.a(USBUART_1_cdc.o)
                                0x763 (size before relaxing)
 .debug_str     0x00002232      0x2c6 .\CortexM3\ARM_GCC_493\Debug\Node-Beaver.a(USBUART_1_drv.o)
                                0x637 (size before relaxing)
 .debug_str     0x000024f8       0x8c .\CortexM3\ARM_GCC_493\Debug\Node-Beaver.a(USBUART_1_episr.o)
                                0x2ca (size before relaxing)
 .debug_str     0x00002584       0xbc .\CortexM3\ARM_GCC_493\Debug\Node-Beaver.a(USBUART_1_pm.o)
                                0x26c (size before relaxing)
 .debug_str     0x00002640      0x2dc .\CortexM3\ARM_GCC_493\Debug\Node-Beaver.a(USBUART_1_std.o)
                                0x79d (size before relaxing)
 .debug_str     0x0000291c       0x65 .\CortexM3\ARM_GCC_493\Debug\Node-Beaver.a(USBUART_1_vnd.o)
                                0x274 (size before relaxing)
 .debug_str     0x00002981       0xc1 .\CortexM3\ARM_GCC_493\Debug\Node-Beaver.a(USBUART_1_Dp.o)
                                0x24a (size before relaxing)
 .debug_str     0x00002a42      0x11e .\CortexM3\ARM_GCC_493\Debug\Node-Beaver.a(power_isr.o)
                                0x2ec (size before relaxing)
 .debug_str     0x00002b60      0x102 .\CortexM3\ARM_GCC_493\Debug\Node-Beaver.a(rtc_i2c.o)
                                0x2a5 (size before relaxing)
 .debug_str     0x00002c62       0xa2 .\CortexM3\ARM_GCC_493\Debug\Node-Beaver.a(rtc_i2c_INT.o)
                                0x273 (size before relaxing)
 .debug_str     0x00002d04       0x6a .\CortexM3\ARM_GCC_493\Debug\Node-Beaver.a(rtc_i2c_PM.o)
                                0x247 (size before relaxing)
 .debug_str     0x00002d6e      0x1a8 .\CortexM3\ARM_GCC_493\Debug\Node-Beaver.a(rtc_i2c_MASTER.o)
                                0x3ef (size before relaxing)
 .debug_str     0x00002f16      0x180 .\CortexM3\ARM_GCC_493\Debug\Node-Beaver.a(time_refresh_isr.o)
                                0x32f (size before relaxing)
 .debug_str     0x00003096      0x1f1 .\CortexM3\ARM_GCC_493\Debug\Node-Beaver.a(millis_timer.o)
                                0x37b (size before relaxing)
 .debug_str     0x00003287      0x240 .\CortexM3\ARM_GCC_493\Debug\Node-Beaver.a(time_refresh_timer.o)
                                0x3e7 (size before relaxing)
 .debug_str     0x000034c7      0x16e .\CortexM3\ARM_GCC_493\Debug\Node-Beaver.a(power_comp.o)
                                0x2f1 (size before relaxing)
 .debug_str     0x00003635      0x390 .\CortexM3\ARM_GCC_493\Debug\Node-Beaver.a(xbee_UART.o)
                                0x56e (size before relaxing)
 .debug_str     0x000039c5       0x5d .\CortexM3\ARM_GCC_493\Debug\Node-Beaver.a(xbee_UART_INT.o)
                                0x262 (size before relaxing)
 .debug_str     0x00003a22      0x1e6 .\CortexM3\ARM_GCC_493\Debug\Node-Beaver.a(xbee_UART_IntClock.o)
                                0x36d (size before relaxing)
 .debug_str     0x00003c08      0x18c .\CortexM3\ARM_GCC_493\Debug\Node-Beaver.a(sd_timer.o)
                                0x333 (size before relaxing)
 .debug_str     0x00003d94       0xf4 .\CortexM3\ARM_GCC_493\Debug\Node-Beaver.a(sd_isr.o)
                                0x2a3 (size before relaxing)
 .debug_str     0x00003e88      0x1f8 .\CortexM3\ARM_GCC_493\Debug\Node-Beaver.a(watchdog_timer.o)
                                0x39f (size before relaxing)
 .debug_str     0x00004080      0x156 .\CortexM3\ARM_GCC_493\Debug\Node-Beaver.a(wdt_reset_isr.o)
                                0x305 (size before relaxing)
 .debug_str     0x000041d6      0x156 .\CortexM3\ARM_GCC_493\Debug\Node-Beaver.a(car_state_isr.o)
                                0x305 (size before relaxing)
 .debug_str     0x0000432c      0x20a .\CortexM3\ARM_GCC_493\Debug\Node-Beaver.a(car_state_timer.o)
                                0x3b1 (size before relaxing)
 .debug_str     0x00004536      0x20a .\CortexM3\ARM_GCC_493\Debug\Node-Beaver.a(heartbeat_timer.o)
                                0x3b1 (size before relaxing)
 .debug_str     0x00004740      0x156 .\CortexM3\ARM_GCC_493\Debug\Node-Beaver.a(heartbeat_isr.o)
                                0x305 (size before relaxing)
 .debug_str     0x00004896      0x13e .\CortexM3\ARM_GCC_493\Debug\Node-Beaver.a(CyFlash.o)
                                0x2e5 (size before relaxing)
 .debug_str     0x000049d4      0x11f .\CortexM3\ARM_GCC_493\Debug\Node-Beaver.a(CySpc.o)
                                0x2e2 (size before relaxing)
 .debug_str     0x00004af3       0x34 .\CortexM3\ARM_GCC_493\Debug\Node-Beaver.a(cyutils.o)
                                0x1ad (size before relaxing)
 .debug_str     0x00004b27       0x43 .\CortexM3\ARM_GCC_493\Debug\Node-Beaver.a(USBUART_1_cls.o)
                                0x28a (size before relaxing)
 .debug_str     0x00004b6a      0x112 .\CortexM3\ARM_GCC_493\Debug\Node-Beaver.a(USBUART_1_descr.o)
                                0x39f (size before relaxing)
 .debug_str     0x00004c7c       0xd1 .\CortexM3\ARM_GCC_493\Debug\Node-Beaver.a(emFile_1_ConfigMMC_SPI.o)
                                0x24b (size before relaxing)
 .debug_str     0x00004d4d      0x14e .\CortexM3\ARM_GCC_493\Debug\Node-Beaver.a(emFile_1_MMC_HW_SPI.o)
                                0x2f4 (size before relaxing)
 .debug_str     0x00004e9b      0x2df .\CortexM3\ARM_GCC_493\Debug\Node-Beaver.a(emFile_1_SPI0.o)
                                0x4a3 (size before relaxing)
 .debug_str     0x0000517a      0x183 .\CortexM3\ARM_GCC_493\Debug\Node-Beaver.a(emFile_1_Clock_1.o)
                                0x355 (size before relaxing)
 .debug_str     0x000052fd       0x92 .\CortexM3\ARM_GCC_493\Debug\Node-Beaver.a(emFile_1_SPI0_CS.o)
                                0x214 (size before relaxing)

.debug_loc
 *(.debug_loc)

.debug_macinfo
 *(.debug_macinfo)

.debug_ranges   0x00000000     0x13f8
 *(.debug_ranges)
 .debug_ranges  0x00000000       0x18 .\CortexM3\ARM_GCC_493\Debug\main.o
 .debug_ranges  0x00000018       0x48 .\CortexM3\ARM_GCC_493\Debug\can_manager.o
 .debug_ranges  0x00000060       0x50 .\CortexM3\ARM_GCC_493\Debug\sd_manager.o
 .debug_ranges  0x000000b0       0x28 .\CortexM3\ARM_GCC_493\Debug\usb_manager.o
 .debug_ranges  0x000000d8       0x18 .\CortexM3\ARM_GCC_493\Debug\radio_manager.o
 .debug_ranges  0x000000f0       0x48 .\CortexM3\ARM_GCC_493\Debug\time_manager.o
 .debug_ranges  0x00000138       0x38 .\CortexM3\ARM_GCC_493\Debug\Cm3Start.o
 .debug_ranges  0x00000170       0x50 .\CortexM3\ARM_GCC_493\Debug\Node-Beaver.a(cyfitter_cfg.o)
 .debug_ranges  0x000001c0      0x290 .\CortexM3\ARM_GCC_493\Debug\Node-Beaver.a(CyLib.o)
 .debug_ranges  0x00000450       0x88 .\CortexM3\ARM_GCC_493\Debug\Node-Beaver.a(cyPm.o)
 .debug_ranges  0x000004d8       0xb8 .\CortexM3\ARM_GCC_493\Debug\Node-Beaver.a(CAN_1.o)
 .debug_ranges  0x00000590       0x18 .\CortexM3\ARM_GCC_493\Debug\Node-Beaver.a(CAN_1_INT.o)
 .debug_ranges  0x000005a8       0x20 .\CortexM3\ARM_GCC_493\Debug\Node-Beaver.a(CAN_1_TX_RX_func.o)
 .debug_ranges  0x000005c8       0x28 .\CortexM3\ARM_GCC_493\Debug\Node-Beaver.a(LED.o)
 .debug_ranges  0x000005f0       0xb8 .\CortexM3\ARM_GCC_493\Debug\Node-Beaver.a(USBUART_1.o)
 .debug_ranges  0x000006a8       0xd8 .\CortexM3\ARM_GCC_493\Debug\Node-Beaver.a(USBUART_1_cdc.o)
 .debug_ranges  0x00000780       0x88 .\CortexM3\ARM_GCC_493\Debug\Node-Beaver.a(USBUART_1_drv.o)
 .debug_ranges  0x00000808       0x30 .\CortexM3\ARM_GCC_493\Debug\Node-Beaver.a(USBUART_1_episr.o)
 .debug_ranges  0x00000838       0x30 .\CortexM3\ARM_GCC_493\Debug\Node-Beaver.a(USBUART_1_pm.o)
 .debug_ranges  0x00000868       0x70 .\CortexM3\ARM_GCC_493\Debug\Node-Beaver.a(USBUART_1_std.o)
 .debug_ranges  0x000008d8       0x10 .\CortexM3\ARM_GCC_493\Debug\Node-Beaver.a(USBUART_1_vnd.o)
 .debug_ranges  0x000008e8       0x38 .\CortexM3\ARM_GCC_493\Debug\Node-Beaver.a(USBUART_1_Dp.o)
 .debug_ranges  0x00000920       0x70 .\CortexM3\ARM_GCC_493\Debug\Node-Beaver.a(power_isr.o)
 .debug_ranges  0x00000990       0x28 .\CortexM3\ARM_GCC_493\Debug\Node-Beaver.a(rtc_i2c.o)
 .debug_ranges  0x000009b8       0x10 .\CortexM3\ARM_GCC_493\Debug\Node-Beaver.a(rtc_i2c_INT.o)
 .debug_ranges  0x000009c8       0x28 .\CortexM3\ARM_GCC_493\Debug\Node-Beaver.a(rtc_i2c_PM.o)
 .debug_ranges  0x000009f0       0x70 .\CortexM3\ARM_GCC_493\Debug\Node-Beaver.a(rtc_i2c_MASTER.o)
 .debug_ranges  0x00000a60       0x70 .\CortexM3\ARM_GCC_493\Debug\Node-Beaver.a(time_refresh_isr.o)
 .debug_ranges  0x00000ad0       0x80 .\CortexM3\ARM_GCC_493\Debug\Node-Beaver.a(millis_timer.o)
 .debug_ranges  0x00000b50       0x80 .\CortexM3\ARM_GCC_493\Debug\Node-Beaver.a(time_refresh_timer.o)
 .debug_ranges  0x00000bd0       0x60 .\CortexM3\ARM_GCC_493\Debug\Node-Beaver.a(power_comp.o)
 .debug_ranges  0x00000c30       0xe0 .\CortexM3\ARM_GCC_493\Debug\Node-Beaver.a(xbee_UART.o)
 .debug_ranges  0x00000d10       0x10 .\CortexM3\ARM_GCC_493\Debug\Node-Beaver.a(xbee_UART_INT.o)
 .debug_ranges  0x00000d20       0x60 .\CortexM3\ARM_GCC_493\Debug\Node-Beaver.a(xbee_UART_IntClock.o)
 .debug_ranges  0x00000d80       0x80 .\CortexM3\ARM_GCC_493\Debug\Node-Beaver.a(sd_timer.o)
 .debug_ranges  0x00000e00       0x70 .\CortexM3\ARM_GCC_493\Debug\Node-Beaver.a(sd_isr.o)
 .debug_ranges  0x00000e70       0x80 .\CortexM3\ARM_GCC_493\Debug\Node-Beaver.a(watchdog_timer.o)
 .debug_ranges  0x00000ef0       0x70 .\CortexM3\ARM_GCC_493\Debug\Node-Beaver.a(wdt_reset_isr.o)
 .debug_ranges  0x00000f60       0x70 .\CortexM3\ARM_GCC_493\Debug\Node-Beaver.a(car_state_isr.o)
 .debug_ranges  0x00000fd0       0x80 .\CortexM3\ARM_GCC_493\Debug\Node-Beaver.a(car_state_timer.o)
 .debug_ranges  0x00001050       0x80 .\CortexM3\ARM_GCC_493\Debug\Node-Beaver.a(heartbeat_timer.o)
 .debug_ranges  0x000010d0       0x70 .\CortexM3\ARM_GCC_493\Debug\Node-Beaver.a(heartbeat_isr.o)
 .debug_ranges  0x00001140       0x70 .\CortexM3\ARM_GCC_493\Debug\Node-Beaver.a(CyFlash.o)
 .debug_ranges  0x000011b0       0x68 .\CortexM3\ARM_GCC_493\Debug\Node-Beaver.a(CySpc.o)
 .debug_ranges  0x00001218       0x10 .\CortexM3\ARM_GCC_493\Debug\Node-Beaver.a(cyutils.o)
 .debug_ranges  0x00001228       0x10 .\CortexM3\ARM_GCC_493\Debug\Node-Beaver.a(USBUART_1_cls.o)
 .debug_ranges  0x00001238       0x18 .\CortexM3\ARM_GCC_493\Debug\Node-Beaver.a(emFile_1_ConfigMMC_SPI.o)
 .debug_ranges  0x00001250       0x58 .\CortexM3\ARM_GCC_493\Debug\Node-Beaver.a(emFile_1_MMC_HW_SPI.o)
 .debug_ranges  0x000012a8       0xc8 .\CortexM3\ARM_GCC_493\Debug\Node-Beaver.a(emFile_1_SPI0.o)
 .debug_ranges  0x00001370       0x60 .\CortexM3\ARM_GCC_493\Debug\Node-Beaver.a(emFile_1_Clock_1.o)
 .debug_ranges  0x000013d0       0x28 .\CortexM3\ARM_GCC_493\Debug\Node-Beaver.a(emFile_1_SPI0_CS.o)

.comment        0x00000000      0x524
 .comment       0x00000000       0x70 .\CortexM3\ARM_GCC_493\Debug\main.o
                                 0x71 (size before relaxing)
 .comment       0x00000000       0x71 .\CortexM3\ARM_GCC_493\Debug\can_manager.o
 .comment       0x00000000       0x71 .\CortexM3\ARM_GCC_493\Debug\sd_manager.o
 .comment       0x00000000       0x71 .\CortexM3\ARM_GCC_493\Debug\usb_manager.o
 .comment       0x00000000       0x71 .\CortexM3\ARM_GCC_493\Debug\radio_manager.o
 .comment       0x00000000       0x71 .\CortexM3\ARM_GCC_493\Debug\time_manager.o
 .comment       0x00000000       0x71 .\CortexM3\ARM_GCC_493\Debug\cymetadata.o
 .comment       0x00000000       0x71 .\CortexM3\ARM_GCC_493\Debug\Cm3Start.o
 .comment       0x00000000       0x71 .\CortexM3\ARM_GCC_493\Debug\Node-Beaver.a(cyfitter_cfg.o)
 .comment       0x00000000       0x71 .\CortexM3\ARM_GCC_493\Debug\Node-Beaver.a(CyLib.o)
 .comment       0x00000000       0x71 .\CortexM3\ARM_GCC_493\Debug\Node-Beaver.a(cyPm.o)
 .comment       0x00000000       0x71 .\CortexM3\ARM_GCC_493\Debug\Node-Beaver.a(CAN_1.o)
 .comment       0x00000000       0x71 .\CortexM3\ARM_GCC_493\Debug\Node-Beaver.a(CAN_1_INT.o)
 .comment       0x00000000       0x71 .\CortexM3\ARM_GCC_493\Debug\Node-Beaver.a(CAN_1_TX_RX_func.o)
 .comment       0x00000000       0x71 .\CortexM3\ARM_GCC_493\Debug\Node-Beaver.a(LED.o)
 .comment       0x00000000       0x71 .\CortexM3\ARM_GCC_493\Debug\Node-Beaver.a(USBUART_1.o)
 .comment       0x00000000       0x71 .\CortexM3\ARM_GCC_493\Debug\Node-Beaver.a(USBUART_1_cdc.o)
 .comment       0x00000000       0x71 .\CortexM3\ARM_GCC_493\Debug\Node-Beaver.a(USBUART_1_drv.o)
 .comment       0x00000000       0x71 .\CortexM3\ARM_GCC_493\Debug\Node-Beaver.a(USBUART_1_episr.o)
 .comment       0x00000000       0x71 .\CortexM3\ARM_GCC_493\Debug\Node-Beaver.a(USBUART_1_pm.o)
 .comment       0x00000000       0x71 .\CortexM3\ARM_GCC_493\Debug\Node-Beaver.a(USBUART_1_std.o)
 .comment       0x00000000       0x71 .\CortexM3\ARM_GCC_493\Debug\Node-Beaver.a(USBUART_1_vnd.o)
 .comment       0x00000000       0x71 .\CortexM3\ARM_GCC_493\Debug\Node-Beaver.a(USBUART_1_Dp.o)
 .comment       0x00000000       0x71 .\CortexM3\ARM_GCC_493\Debug\Node-Beaver.a(power_isr.o)
 .comment       0x00000000       0x71 .\CortexM3\ARM_GCC_493\Debug\Node-Beaver.a(rtc_i2c.o)
 .comment       0x00000000       0x71 .\CortexM3\ARM_GCC_493\Debug\Node-Beaver.a(rtc_i2c_INT.o)
 .comment       0x00000000       0x71 .\CortexM3\ARM_GCC_493\Debug\Node-Beaver.a(rtc_i2c_PM.o)
 .comment       0x00000000       0x71 .\CortexM3\ARM_GCC_493\Debug\Node-Beaver.a(rtc_i2c_MASTER.o)
 .comment       0x00000000       0x71 .\CortexM3\ARM_GCC_493\Debug\Node-Beaver.a(time_refresh_isr.o)
 .comment       0x00000000       0x71 .\CortexM3\ARM_GCC_493\Debug\Node-Beaver.a(millis_timer.o)
 .comment       0x00000000       0x71 .\CortexM3\ARM_GCC_493\Debug\Node-Beaver.a(time_refresh_timer.o)
 .comment       0x00000000       0x71 .\CortexM3\ARM_GCC_493\Debug\Node-Beaver.a(power_comp.o)
 .comment       0x00000000       0x71 .\CortexM3\ARM_GCC_493\Debug\Node-Beaver.a(xbee_UART.o)
 .comment       0x00000000       0x71 .\CortexM3\ARM_GCC_493\Debug\Node-Beaver.a(xbee_UART_INT.o)
 .comment       0x00000000       0x71 .\CortexM3\ARM_GCC_493\Debug\Node-Beaver.a(xbee_UART_IntClock.o)
 .comment       0x00000000       0x71 .\CortexM3\ARM_GCC_493\Debug\Node-Beaver.a(sd_timer.o)
 .comment       0x00000000       0x71 .\CortexM3\ARM_GCC_493\Debug\Node-Beaver.a(sd_isr.o)
 .comment       0x00000000       0x71 .\CortexM3\ARM_GCC_493\Debug\Node-Beaver.a(watchdog_timer.o)
 .comment       0x00000000       0x71 .\CortexM3\ARM_GCC_493\Debug\Node-Beaver.a(wdt_reset_isr.o)
 .comment       0x00000000       0x71 .\CortexM3\ARM_GCC_493\Debug\Node-Beaver.a(car_state_isr.o)
 .comment       0x00000000       0x71 .\CortexM3\ARM_GCC_493\Debug\Node-Beaver.a(car_state_timer.o)
 .comment       0x00000000       0x71 .\CortexM3\ARM_GCC_493\Debug\Node-Beaver.a(heartbeat_timer.o)
 .comment       0x00000000       0x71 .\CortexM3\ARM_GCC_493\Debug\Node-Beaver.a(heartbeat_isr.o)
 .comment       0x00000000       0x71 .\CortexM3\ARM_GCC_493\Debug\Node-Beaver.a(CyFlash.o)
 .comment       0x00000000       0x71 .\CortexM3\ARM_GCC_493\Debug\Node-Beaver.a(CySpc.o)
 .comment       0x00000000       0x71 .\CortexM3\ARM_GCC_493\Debug\Node-Beaver.a(cyutils.o)
 .comment       0x00000000       0x71 .\CortexM3\ARM_GCC_493\Debug\Node-Beaver.a(USBUART_1_cls.o)
 .comment       0x00000000       0x71 .\CortexM3\ARM_GCC_493\Debug\Node-Beaver.a(USBUART_1_descr.o)
 .comment       0x00000070       0x2b .\emFile_V322c\LinkLibrary\PSoC5\GCC\libemf16noslfn.a(FAT_FormatSD.o)
 .comment       0x0000009b       0x2b .\emFile_V322c\LinkLibrary\PSoC5\GCC\libemf16noslfn.a(FAT_LFN.o)
 .comment       0x000000c6       0x2b .\emFile_V322c\LinkLibrary\PSoC5\GCC\libemf16noslfn.a(FAT_Misc.o)
 .comment       0x000000f1       0x2b .\emFile_V322c\LinkLibrary\PSoC5\GCC\libemf16noslfn.a(FAT_Open.o)
 .comment       0x0000011c       0x2b .\emFile_V322c\LinkLibrary\PSoC5\GCC\libemf16noslfn.a(FAT_Write.o)
 .comment       0x00000147       0x2b .\emFile_V322c\LinkLibrary\PSoC5\GCC\libemf16noslfn.a(FS_Attrib.o)
 .comment       0x00000172       0x2b .\emFile_V322c\LinkLibrary\PSoC5\GCC\libemf16noslfn.a(FS_CLib.o)
 .comment       0x0000019d       0x2b .\emFile_V322c\LinkLibrary\PSoC5\GCC\libemf16noslfn.a(FS_Core.o)
 .comment       0x000001c8       0x2b .\emFile_V322c\LinkLibrary\PSoC5\GCC\libemf16noslfn.a(FS_Dir.o)
 .comment       0x000001f3       0x2b .\emFile_V322c\LinkLibrary\PSoC5\GCC\libemf16noslfn.a(FS_LogBlock.o)
 .comment       0x0000021e       0x2b .\emFile_V322c\LinkLibrary\PSoC5\GCC\libemf16noslfn.a(FS_memcpy.o)
 .comment       0x00000249       0x2b .\emFile_V322c\LinkLibrary\PSoC5\GCC\libemf16noslfn.a(FS_Misc.o)
 .comment       0x00000274       0x2b .\emFile_V322c\LinkLibrary\PSoC5\GCC\libemf16noslfn.a(FS_Read.o)
 .comment       0x0000029f       0x2b .\emFile_V322c\LinkLibrary\PSoC5\GCC\libemf16noslfn.a(FS_Storage.o)
 .comment       0x000002ca       0x2b .\emFile_V322c\LinkLibrary\PSoC5\GCC\libemf16noslfn.a(FS_Time.o)
 .comment       0x000002f5       0x2b .\emFile_V322c\LinkLibrary\PSoC5\GCC\libemf16noslfn.a(FS_Unmount.o)
 .comment       0x00000320       0x2b .\emFile_V322c\LinkLibrary\PSoC5\GCC\libemf16noslfn.a(FS_Volume.o)
 .comment       0x0000034b       0x2b .\emFile_V322c\LinkLibrary\PSoC5\GCC\libemf16noslfn.a(FS_Write.o)
 .comment       0x00000376       0x2b .\emFile_V322c\LinkLibrary\PSoC5\GCC\libemf16noslfn.a(FAT_CheckDisk.o)
 .comment       0x000003a1       0x2b .\emFile_V322c\LinkLibrary\PSoC5\GCC\libemf16noslfn.a(FAT_Dir.o)
 .comment       0x000003cc       0x2b .\emFile_V322c\LinkLibrary\PSoC5\GCC\libemf16noslfn.a(FAT_DirEntry.o)
 .comment       0x000003f7       0x2b .\emFile_V322c\LinkLibrary\PSoC5\GCC\libemf16noslfn.a(FAT_DiskInfo.o)
 .comment       0x00000422       0x2b .\emFile_V322c\LinkLibrary\PSoC5\GCC\libemf16noslfn.a(FAT_Format.o)
 .comment       0x0000044d       0x2b .\emFile_V322c\LinkLibrary\PSoC5\GCC\libemf16noslfn.a(FAT_Read.o)
 .comment       0x00000478       0x2b .\emFile_V322c\LinkLibrary\PSoC5\GCC\libemf16noslfn.a(FAT_VolumeLabel.o)
 .comment       0x000004a3       0x2b .\emFile_V322c\LinkLibrary\PSoC5\GCC\libemf16noslfn.a(FS_Partition.o)
 .comment       0x00000000       0x71 .\CortexM3\ARM_GCC_493\Debug\Node-Beaver.a(emFile_1_ConfigMMC_SPI.o)
 .comment       0x000004ce       0x2b .\emFile_V322c\LinkLibrary\PSoC5\GCC\libemf16noslfn.a(MMC_Drv.o)
 .comment       0x000004f9       0x2b .\emFile_V322c\LinkLibrary\PSoC5\GCC\libemf16noslfn.a(FS_CRC16.o)
 .comment       0x00000000       0x71 .\CortexM3\ARM_GCC_493\Debug\Node-Beaver.a(emFile_1_MMC_HW_SPI.o)
 .comment       0x00000000       0x71 .\CortexM3\ARM_GCC_493\Debug\Node-Beaver.a(emFile_1_SPI0.o)
 .comment       0x00000000       0x71 .\CortexM3\ARM_GCC_493\Debug\Node-Beaver.a(emFile_1_Clock_1.o)
 .comment       0x00000000       0x71 .\CortexM3\ARM_GCC_493\Debug\Node-Beaver.a(emFile_1_SPI0_CS.o)

.debug_weaknames
 *(.debug_weaknames)

.debug_funcnames
 *(.debug_funcnames)

.debug_typenames
 *(.debug_typenames)

.debug_varnames
 *(.debug_varnames)

.note.gnu.arm.ident
 *(.note.gnu.arm.ident)

.ARM.attributes
                0x00000000       0x29
 *(.ARM.attributes)
 .ARM.attributes
                0x00000000       0x1d d:/programming/cypress/psoc creator/4.0/psoc creator/import/gnu/arm/4.9.3/bin/../lib/gcc/arm-none-eabi/4.9.3/armv7-m/crti.o
 .ARM.attributes
                0x0000001d       0x2d d:/programming/cypress/psoc creator/4.0/psoc creator/import/gnu/arm/4.9.3/bin/../lib/gcc/arm-none-eabi/4.9.3/armv7-m/crtbegin.o
 .ARM.attributes
                0x0000004a       0x1b d:/programming/cypress/psoc creator/4.0/psoc creator/import/gnu/arm/4.9.3/bin/../lib/gcc/arm-none-eabi/4.9.3/../../../../arm-none-eabi/lib/armv7-m/crt0.o
 .ARM.attributes
                0x00000065       0x33 .\CortexM3\ARM_GCC_493\Debug\main.o
 .ARM.attributes
                0x00000098       0x33 .\CortexM3\ARM_GCC_493\Debug\can_manager.o
 .ARM.attributes
                0x000000cb       0x33 .\CortexM3\ARM_GCC_493\Debug\sd_manager.o
 .ARM.attributes
                0x000000fe       0x33 .\CortexM3\ARM_GCC_493\Debug\usb_manager.o
 .ARM.attributes
                0x00000131       0x33 .\CortexM3\ARM_GCC_493\Debug\radio_manager.o
 .ARM.attributes
                0x00000164       0x33 .\CortexM3\ARM_GCC_493\Debug\time_manager.o
 .ARM.attributes
                0x00000197       0x33 .\CortexM3\ARM_GCC_493\Debug\cymetadata.o
 .ARM.attributes
                0x000001ca       0x33 .\CortexM3\ARM_GCC_493\Debug\Cm3Start.o
 .ARM.attributes
                0x000001fd       0x33 .\CortexM3\ARM_GCC_493\Debug\Node-Beaver.a(cyfitter_cfg.o)
 .ARM.attributes
                0x00000230       0x33 .\CortexM3\ARM_GCC_493\Debug\Node-Beaver.a(CyLib.o)
 .ARM.attributes
                0x00000263       0x33 .\CortexM3\ARM_GCC_493\Debug\Node-Beaver.a(cyPm.o)
 .ARM.attributes
                0x00000296       0x33 .\CortexM3\ARM_GCC_493\Debug\Node-Beaver.a(CAN_1.o)
 .ARM.attributes
                0x000002c9       0x33 .\CortexM3\ARM_GCC_493\Debug\Node-Beaver.a(CAN_1_INT.o)
 .ARM.attributes
                0x000002fc       0x33 .\CortexM3\ARM_GCC_493\Debug\Node-Beaver.a(CAN_1_TX_RX_func.o)
 .ARM.attributes
                0x0000032f       0x33 .\CortexM3\ARM_GCC_493\Debug\Node-Beaver.a(LED.o)
 .ARM.attributes
                0x00000362       0x33 .\CortexM3\ARM_GCC_493\Debug\Node-Beaver.a(USBUART_1.o)
 .ARM.attributes
                0x00000395       0x33 .\CortexM3\ARM_GCC_493\Debug\Node-Beaver.a(USBUART_1_cdc.o)
 .ARM.attributes
                0x000003c8       0x33 .\CortexM3\ARM_GCC_493\Debug\Node-Beaver.a(USBUART_1_drv.o)
 .ARM.attributes
                0x000003fb       0x33 .\CortexM3\ARM_GCC_493\Debug\Node-Beaver.a(USBUART_1_episr.o)
 .ARM.attributes
                0x0000042e       0x33 .\CortexM3\ARM_GCC_493\Debug\Node-Beaver.a(USBUART_1_pm.o)
 .ARM.attributes
                0x00000461       0x33 .\CortexM3\ARM_GCC_493\Debug\Node-Beaver.a(USBUART_1_std.o)
 .ARM.attributes
                0x00000494       0x33 .\CortexM3\ARM_GCC_493\Debug\Node-Beaver.a(USBUART_1_vnd.o)
 .ARM.attributes
                0x000004c7       0x33 .\CortexM3\ARM_GCC_493\Debug\Node-Beaver.a(USBUART_1_Dp.o)
 .ARM.attributes
                0x000004fa       0x33 .\CortexM3\ARM_GCC_493\Debug\Node-Beaver.a(power_isr.o)
 .ARM.attributes
                0x0000052d       0x33 .\CortexM3\ARM_GCC_493\Debug\Node-Beaver.a(rtc_i2c.o)
 .ARM.attributes
                0x00000560       0x33 .\CortexM3\ARM_GCC_493\Debug\Node-Beaver.a(rtc_i2c_INT.o)
 .ARM.attributes
                0x00000593       0x33 .\CortexM3\ARM_GCC_493\Debug\Node-Beaver.a(rtc_i2c_PM.o)
 .ARM.attributes
                0x000005c6       0x33 .\CortexM3\ARM_GCC_493\Debug\Node-Beaver.a(rtc_i2c_MASTER.o)
 .ARM.attributes
                0x000005f9       0x33 .\CortexM3\ARM_GCC_493\Debug\Node-Beaver.a(time_refresh_isr.o)
 .ARM.attributes
                0x0000062c       0x33 .\CortexM3\ARM_GCC_493\Debug\Node-Beaver.a(millis_timer.o)
 .ARM.attributes
                0x0000065f       0x33 .\CortexM3\ARM_GCC_493\Debug\Node-Beaver.a(time_refresh_timer.o)
 .ARM.attributes
                0x00000692       0x33 .\CortexM3\ARM_GCC_493\Debug\Node-Beaver.a(power_comp.o)
 .ARM.attributes
                0x000006c5       0x33 .\CortexM3\ARM_GCC_493\Debug\Node-Beaver.a(xbee_UART.o)
 .ARM.attributes
                0x000006f8       0x33 .\CortexM3\ARM_GCC_493\Debug\Node-Beaver.a(xbee_UART_INT.o)
 .ARM.attributes
                0x0000072b       0x33 .\CortexM3\ARM_GCC_493\Debug\Node-Beaver.a(xbee_UART_IntClock.o)
 .ARM.attributes
                0x0000075e       0x33 .\CortexM3\ARM_GCC_493\Debug\Node-Beaver.a(sd_timer.o)
 .ARM.attributes
                0x00000791       0x33 .\CortexM3\ARM_GCC_493\Debug\Node-Beaver.a(sd_isr.o)
 .ARM.attributes
                0x000007c4       0x33 .\CortexM3\ARM_GCC_493\Debug\Node-Beaver.a(watchdog_timer.o)
 .ARM.attributes
                0x000007f7       0x33 .\CortexM3\ARM_GCC_493\Debug\Node-Beaver.a(wdt_reset_isr.o)
 .ARM.attributes
                0x0000082a       0x33 .\CortexM3\ARM_GCC_493\Debug\Node-Beaver.a(car_state_isr.o)
 .ARM.attributes
                0x0000085d       0x33 .\CortexM3\ARM_GCC_493\Debug\Node-Beaver.a(car_state_timer.o)
 .ARM.attributes
                0x00000890       0x33 .\CortexM3\ARM_GCC_493\Debug\Node-Beaver.a(heartbeat_timer.o)
 .ARM.attributes
                0x000008c3       0x33 .\CortexM3\ARM_GCC_493\Debug\Node-Beaver.a(heartbeat_isr.o)
 .ARM.attributes
                0x000008f6       0x21 .\CortexM3\ARM_GCC_493\Debug\Node-Beaver.a(CyBootAsmGnu.o)
 .ARM.attributes
                0x00000917       0x33 .\CortexM3\ARM_GCC_493\Debug\Node-Beaver.a(CyFlash.o)
 .ARM.attributes
                0x0000094a       0x33 .\CortexM3\ARM_GCC_493\Debug\Node-Beaver.a(CySpc.o)
 .ARM.attributes
                0x0000097d       0x33 .\CortexM3\ARM_GCC_493\Debug\Node-Beaver.a(cyutils.o)
 .ARM.attributes
                0x000009b0       0x33 .\CortexM3\ARM_GCC_493\Debug\Node-Beaver.a(USBUART_1_cls.o)
 .ARM.attributes
                0x000009e3       0x33 .\CortexM3\ARM_GCC_493\Debug\Node-Beaver.a(USBUART_1_descr.o)
 .ARM.attributes
                0x00000a16       0x31 .\emFile_V322c\LinkLibrary\PSoC5\GCC\libemf16noslfn.a(FAT_FormatSD.o)
 .ARM.attributes
                0x00000a47       0x31 .\emFile_V322c\LinkLibrary\PSoC5\GCC\libemf16noslfn.a(FAT_LFN.o)
 .ARM.attributes
                0x00000a78       0x31 .\emFile_V322c\LinkLibrary\PSoC5\GCC\libemf16noslfn.a(FAT_Misc.o)
 .ARM.attributes
                0x00000aa9       0x31 .\emFile_V322c\LinkLibrary\PSoC5\GCC\libemf16noslfn.a(FAT_Open.o)
 .ARM.attributes
                0x00000ada       0x31 .\emFile_V322c\LinkLibrary\PSoC5\GCC\libemf16noslfn.a(FAT_Write.o)
 .ARM.attributes
                0x00000b0b       0x31 .\emFile_V322c\LinkLibrary\PSoC5\GCC\libemf16noslfn.a(FS_Attrib.o)
 .ARM.attributes
                0x00000b3c       0x31 .\emFile_V322c\LinkLibrary\PSoC5\GCC\libemf16noslfn.a(FS_CLib.o)
 .ARM.attributes
                0x00000b6d       0x31 .\emFile_V322c\LinkLibrary\PSoC5\GCC\libemf16noslfn.a(FS_Core.o)
 .ARM.attributes
                0x00000b9e       0x31 .\emFile_V322c\LinkLibrary\PSoC5\GCC\libemf16noslfn.a(FS_Dir.o)
 .ARM.attributes
                0x00000bcf       0x31 .\emFile_V322c\LinkLibrary\PSoC5\GCC\libemf16noslfn.a(FS_LogBlock.o)
 .ARM.attributes
                0x00000c00       0x31 .\emFile_V322c\LinkLibrary\PSoC5\GCC\libemf16noslfn.a(FS_memcpy.o)
 .ARM.attributes
                0x00000c31       0x31 .\emFile_V322c\LinkLibrary\PSoC5\GCC\libemf16noslfn.a(FS_Misc.o)
 .ARM.attributes
                0x00000c62       0x31 .\emFile_V322c\LinkLibrary\PSoC5\GCC\libemf16noslfn.a(FS_Read.o)
 .ARM.attributes
                0x00000c93       0x31 .\emFile_V322c\LinkLibrary\PSoC5\GCC\libemf16noslfn.a(FS_Storage.o)
 .ARM.attributes
                0x00000cc4       0x31 .\emFile_V322c\LinkLibrary\PSoC5\GCC\libemf16noslfn.a(FS_Time.o)
 .ARM.attributes
                0x00000cf5       0x31 .\emFile_V322c\LinkLibrary\PSoC5\GCC\libemf16noslfn.a(FS_Unmount.o)
 .ARM.attributes
                0x00000d26       0x31 .\emFile_V322c\LinkLibrary\PSoC5\GCC\libemf16noslfn.a(FS_Volume.o)
 .ARM.attributes
                0x00000d57       0x31 .\emFile_V322c\LinkLibrary\PSoC5\GCC\libemf16noslfn.a(FS_Write.o)
 .ARM.attributes
                0x00000d88       0x31 .\emFile_V322c\LinkLibrary\PSoC5\GCC\libemf16noslfn.a(FAT_CheckDisk.o)
 .ARM.attributes
                0x00000db9       0x31 .\emFile_V322c\LinkLibrary\PSoC5\GCC\libemf16noslfn.a(FAT_Dir.o)
 .ARM.attributes
                0x00000dea       0x31 .\emFile_V322c\LinkLibrary\PSoC5\GCC\libemf16noslfn.a(FAT_DirEntry.o)
 .ARM.attributes
                0x00000e1b       0x31 .\emFile_V322c\LinkLibrary\PSoC5\GCC\libemf16noslfn.a(FAT_DiskInfo.o)
 .ARM.attributes
                0x00000e4c       0x31 .\emFile_V322c\LinkLibrary\PSoC5\GCC\libemf16noslfn.a(FAT_Format.o)
 .ARM.attributes
                0x00000e7d       0x31 .\emFile_V322c\LinkLibrary\PSoC5\GCC\libemf16noslfn.a(FAT_Read.o)
 .ARM.attributes
                0x00000eae       0x31 .\emFile_V322c\LinkLibrary\PSoC5\GCC\libemf16noslfn.a(FAT_VolumeLabel.o)
 .ARM.attributes
                0x00000edf       0x31 .\emFile_V322c\LinkLibrary\PSoC5\GCC\libemf16noslfn.a(FS_Partition.o)
 .ARM.attributes
                0x00000f10       0x33 .\CortexM3\ARM_GCC_493\Debug\Node-Beaver.a(emFile_1_ConfigMMC_SPI.o)
 .ARM.attributes
                0x00000f43       0x31 .\emFile_V322c\LinkLibrary\PSoC5\GCC\libemf16noslfn.a(MMC_Drv.o)
 .ARM.attributes
                0x00000f74       0x31 .\emFile_V322c\LinkLibrary\PSoC5\GCC\libemf16noslfn.a(FS_CRC16.o)
 .ARM.attributes
                0x00000fa5       0x33 .\CortexM3\ARM_GCC_493\Debug\Node-Beaver.a(emFile_1_MMC_HW_SPI.o)
 .ARM.attributes
                0x00000fd8       0x33 .\CortexM3\ARM_GCC_493\Debug\Node-Beaver.a(emFile_1_SPI0.o)
 .ARM.attributes
                0x0000100b       0x33 .\CortexM3\ARM_GCC_493\Debug\Node-Beaver.a(emFile_1_Clock_1.o)
 .ARM.attributes
                0x0000103e       0x33 .\CortexM3\ARM_GCC_493\Debug\Node-Beaver.a(emFile_1_SPI0_CS.o)
 .ARM.attributes
                0x00001071       0x2d d:/programming/cypress/psoc creator/4.0/psoc creator/import/gnu/arm/4.9.3/bin/../lib/gcc/arm-none-eabi/4.9.3/../../../../arm-none-eabi/lib/armv7-m\libg_nano.a(lib_a-atoi.o)
 .ARM.attributes
                0x0000109e       0x2d d:/programming/cypress/psoc creator/4.0/psoc creator/import/gnu/arm/4.9.3/bin/../lib/gcc/arm-none-eabi/4.9.3/../../../../arm-none-eabi/lib/armv7-m\libg_nano.a(lib_a-errno.o)
 .ARM.attributes
                0x000010cb       0x2d d:/programming/cypress/psoc creator/4.0/psoc creator/import/gnu/arm/4.9.3/bin/../lib/gcc/arm-none-eabi/4.9.3/../../../../arm-none-eabi/lib/armv7-m\libg_nano.a(lib_a-exit.o)
 .ARM.attributes
                0x000010f8       0x2d d:/programming/cypress/psoc creator/4.0/psoc creator/import/gnu/arm/4.9.3/bin/../lib/gcc/arm-none-eabi/4.9.3/../../../../arm-none-eabi/lib/armv7-m\libg_nano.a(lib_a-impure.o)
 .ARM.attributes
                0x00001125       0x2d d:/programming/cypress/psoc creator/4.0/psoc creator/import/gnu/arm/4.9.3/bin/../lib/gcc/arm-none-eabi/4.9.3/../../../../arm-none-eabi/lib/armv7-m\libg_nano.a(lib_a-init.o)
 .ARM.attributes
                0x00001152       0x2d d:/programming/cypress/psoc creator/4.0/psoc creator/import/gnu/arm/4.9.3/bin/../lib/gcc/arm-none-eabi/4.9.3/../../../../arm-none-eabi/lib/armv7-m\libg_nano.a(lib_a-memcmp.o)
 .ARM.attributes
                0x0000117f       0x2d d:/programming/cypress/psoc creator/4.0/psoc creator/import/gnu/arm/4.9.3/bin/../lib/gcc/arm-none-eabi/4.9.3/../../../../arm-none-eabi/lib/armv7-m\libg_nano.a(lib_a-memcpy.o)
 .ARM.attributes
                0x000011ac       0x2d d:/programming/cypress/psoc creator/4.0/psoc creator/import/gnu/arm/4.9.3/bin/../lib/gcc/arm-none-eabi/4.9.3/../../../../arm-none-eabi/lib/armv7-m\libg_nano.a(lib_a-memset.o)
 .ARM.attributes
                0x000011d9       0x2d d:/programming/cypress/psoc creator/4.0/psoc creator/import/gnu/arm/4.9.3/bin/../lib/gcc/arm-none-eabi/4.9.3/../../../../arm-none-eabi/lib/armv7-m\libg_nano.a(lib_a-sprintf.o)
 .ARM.attributes
                0x00001206       0x2d d:/programming/cypress/psoc creator/4.0/psoc creator/import/gnu/arm/4.9.3/bin/../lib/gcc/arm-none-eabi/4.9.3/../../../../arm-none-eabi/lib/armv7-m\libg_nano.a(lib_a-strlen.o)
 .ARM.attributes
                0x00001233       0x2d d:/programming/cypress/psoc creator/4.0/psoc creator/import/gnu/arm/4.9.3/bin/../lib/gcc/arm-none-eabi/4.9.3/../../../../arm-none-eabi/lib/armv7-m\libg_nano.a(lib_a-strtok.o)
 .ARM.attributes
                0x00001260       0x2d d:/programming/cypress/psoc creator/4.0/psoc creator/import/gnu/arm/4.9.3/bin/../lib/gcc/arm-none-eabi/4.9.3/../../../../arm-none-eabi/lib/armv7-m\libg_nano.a(lib_a-strtok_r.o)
 .ARM.attributes
                0x0000128d       0x2d d:/programming/cypress/psoc creator/4.0/psoc creator/import/gnu/arm/4.9.3/bin/../lib/gcc/arm-none-eabi/4.9.3/../../../../arm-none-eabi/lib/armv7-m\libg_nano.a(lib_a-strtol.o)
 .ARM.attributes
                0x000012ba       0x2d d:/programming/cypress/psoc creator/4.0/psoc creator/import/gnu/arm/4.9.3/bin/../lib/gcc/arm-none-eabi/4.9.3/../../../../arm-none-eabi/lib/armv7-m\libg_nano.a(lib_a-ctype_.o)
 .ARM.attributes
                0x000012e7       0x2d d:/programming/cypress/psoc creator/4.0/psoc creator/import/gnu/arm/4.9.3/bin/../lib/gcc/arm-none-eabi/4.9.3/../../../../arm-none-eabi/lib/armv7-m\libg_nano.a(lib_a-malloc.o)
 .ARM.attributes
                0x00001314       0x2d d:/programming/cypress/psoc creator/4.0/psoc creator/import/gnu/arm/4.9.3/bin/../lib/gcc/arm-none-eabi/4.9.3/../../../../arm-none-eabi/lib/armv7-m\libg_nano.a(lib_a-nano-freer.o)
 .ARM.attributes
                0x00001341       0x2d d:/programming/cypress/psoc creator/4.0/psoc creator/import/gnu/arm/4.9.3/bin/../lib/gcc/arm-none-eabi/4.9.3/../../../../arm-none-eabi/lib/armv7-m\libg_nano.a(lib_a-nano-mallocr.o)
 .ARM.attributes
                0x0000136e       0x2d d:/programming/cypress/psoc creator/4.0/psoc creator/import/gnu/arm/4.9.3/bin/../lib/gcc/arm-none-eabi/4.9.3/../../../../arm-none-eabi/lib/armv7-m\libg_nano.a(lib_a-nano-svfprintf.o)
 .ARM.attributes
                0x0000139b       0x2d d:/programming/cypress/psoc creator/4.0/psoc creator/import/gnu/arm/4.9.3/bin/../lib/gcc/arm-none-eabi/4.9.3/../../../../arm-none-eabi/lib/armv7-m\libg_nano.a(lib_a-nano-vfprintf_i.o)
 .ARM.attributes
                0x000013c8       0x2d d:/programming/cypress/psoc creator/4.0/psoc creator/import/gnu/arm/4.9.3/bin/../lib/gcc/arm-none-eabi/4.9.3/../../../../arm-none-eabi/lib/armv7-m\libg_nano.a(lib_a-sbrkr.o)
 .ARM.attributes
                0x000013f5       0x2d d:/programming/cypress/psoc creator/4.0/psoc creator/import/gnu/arm/4.9.3/bin/../lib/gcc/arm-none-eabi/4.9.3/../../../../arm-none-eabi/lib/armv7-m\libg_nano.a(lib_a-memchr.o)
 .ARM.attributes
                0x00001422       0x2d d:/programming/cypress/psoc creator/4.0/psoc creator/import/gnu/arm/4.9.3/bin/../lib/gcc/arm-none-eabi/4.9.3/../../../../arm-none-eabi/lib/armv7-m\libg_nano.a(lib_a-memmove.o)
 .ARM.attributes
                0x0000144f       0x2d d:/programming/cypress/psoc creator/4.0/psoc creator/import/gnu/arm/4.9.3/bin/../lib/gcc/arm-none-eabi/4.9.3/../../../../arm-none-eabi/lib/armv7-m\libg_nano.a(lib_a-nano-reallocr.o)
 .ARM.attributes
                0x0000147c       0x2d d:/programming/cypress/psoc creator/4.0/psoc creator/import/gnu/arm/4.9.3/bin/../lib/gcc/arm-none-eabi/4.9.3/../../../../arm-none-eabi/lib/armv7-m\libg_nano.a(lib_a-reent.o)
 .ARM.attributes
                0x000014a9       0x2d d:/programming/cypress/psoc creator/4.0/psoc creator/import/gnu/arm/4.9.3/bin/../lib/gcc/arm-none-eabi/4.9.3/../../../../arm-none-eabi/lib/armv7-m\libg_nano.a(lib_a-nano-msizer.o)
 .ARM.attributes
                0x000014d6       0x2d d:/programming/cypress/psoc creator/4.0/psoc creator/import/gnu/arm/4.9.3/bin/../lib/gcc/arm-none-eabi/4.9.3/armv7-m/crtend.o
 .ARM.attributes
                0x00001503       0x1d d:/programming/cypress/psoc creator/4.0/psoc creator/import/gnu/arm/4.9.3/bin/../lib/gcc/arm-none-eabi/4.9.3/armv7-m/crtn.o

/DISCARD/
 *(.note.GNU-stack)
OUTPUT(.\CortexM3\ARM_GCC_493\Debug\Node-Beaver.elf elf32-littlearm)
