ARM GAS  D:\Windows\AppData\Local\Temp\cc9Bphjc.s 			page 1


   1              		.syntax unified
   2              		.cpu cortex-m3
   3              		.fpu softvfp
   4              		.eabi_attribute 20, 1
   5              		.eabi_attribute 21, 1
   6              		.eabi_attribute 23, 3
   7              		.eabi_attribute 24, 1
   8              		.eabi_attribute 25, 1
   9              		.eabi_attribute 26, 1
  10              		.eabi_attribute 30, 6
  11              		.eabi_attribute 34, 1
  12              		.eabi_attribute 18, 4
  13              		.thumb
  14              		.file	"sd_manager.c"
  15              		.text
  16              	.Ltext0:
  17              		.cfi_sections	.debug_frame
  18              		.comm	pfile,4,4
  19              		.global	sd_ok
  20              		.bss
  21              		.type	sd_ok, %object
  22              		.size	sd_ok, 1
  23              	sd_ok:
  24 0000 00       		.space	1
  25              		.global	set_time_file
  26              		.section	.rodata
  27              		.align	2
  28              		.type	set_time_file, %object
  29              		.size	set_time_file, 14
  30              	set_time_file:
  31 0000 5C736574 		.ascii	"\\set_time.txt\000"
  31      5F74696D 
  31      652E7478 
  31      7400
  32              		.global	format_file
  33 000e 0000     		.align	2
  34              		.type	format_file, %object
  35              		.size	format_file, 12
  36              	format_file:
  37 0010 5C666F72 		.ascii	"\\format.txt\000"
  37      6D61742E 
  37      74787400 
  38              		.comm	sd_queue,16384,4
  39              		.global	sd_head
  40              		.bss
  41 0001 00       		.align	1
  42              		.type	sd_head, %object
  43              		.size	sd_head, 2
  44              	sd_head:
  45 0002 0000     		.space	2
  46              		.global	sd_tail
  47              		.align	1
  48              		.type	sd_tail, %object
  49              		.size	sd_tail, 2
  50              	sd_tail:
  51 0004 0000     		.space	2
  52              		.section	.text.power_interrupt,"ax",%progbits
ARM GAS  D:\Windows\AppData\Local\Temp\cc9Bphjc.s 			page 2


  53              		.align	2
  54              		.global	power_interrupt
  55              		.thumb
  56              		.thumb_func
  57              		.type	power_interrupt, %function
  58              	power_interrupt:
  59              	.LFB63:
  60              		.file 1 "sd_manager.c"
   1:sd_manager.c  **** #include "sd_manager.h"
   2:sd_manager.c  **** 
   3:sd_manager.c  **** 
   4:sd_manager.c  **** FS_FILE* pfile;
   5:sd_manager.c  **** uint8_t sd_ok = 0;
   6:sd_manager.c  **** 
   7:sd_manager.c  **** const char set_time_file[] = "\\set_time.txt";
   8:sd_manager.c  **** const char format_file[] = "\\format.txt";
   9:sd_manager.c  **** 
  10:sd_manager.c  **** DataPacket sd_queue[SD_QUEUE_LENGTH];
  11:sd_manager.c  **** uint16_t sd_head = 0, sd_tail = 0;
  12:sd_manager.c  **** 
  13:sd_manager.c  **** 	
  14:sd_manager.c  **** CY_ISR(power_interrupt) {
  61              		.loc 1 14 0
  62              		.cfi_startproc
  63              		@ args = 0, pretend = 0, frame = 0
  64              		@ frame_needed = 1, uses_anonymous_args = 0
  65 0000 80B5     		push	{r7, lr}
  66              		.cfi_def_cfa_offset 8
  67              		.cfi_offset 7, -8
  68              		.cfi_offset 14, -4
  69 0002 00AF     		add	r7, sp, #0
  70              		.cfi_def_cfa_register 7
  15:sd_manager.c  ****     LED_Write(1);
  71              		.loc 1 15 0
  72 0004 0120     		movs	r0, #1
  73 0006 FFF7FEFF 		bl	LED_Write
  16:sd_manager.c  **** 	sd_stop();
  74              		.loc 1 16 0
  75 000a FFF7FEFF 		bl	sd_stop
  17:sd_manager.c  **** 	power_isr_ClearPending();
  76              		.loc 1 17 0
  77 000e FFF7FEFF 		bl	power_isr_ClearPending
  18:sd_manager.c  ****     CyDelay(1000);
  78              		.loc 1 18 0
  79 0012 4FF47A70 		mov	r0, #1000
  80 0016 FFF7FEFF 		bl	CyDelay
  81              	.L2:
  19:sd_manager.c  ****     for(;;); // halt program until IC shuts down
  82              		.loc 1 19 0 discriminator 1
  83 001a FEE7     		b	.L2
  84              		.cfi_endproc
  85              	.LFE63:
  86              		.size	power_interrupt, .-power_interrupt
  87              		.section	.text.sd_interrupt,"ax",%progbits
  88              		.align	2
  89              		.global	sd_interrupt
  90              		.thumb
ARM GAS  D:\Windows\AppData\Local\Temp\cc9Bphjc.s 			page 3


  91              		.thumb_func
  92              		.type	sd_interrupt, %function
  93              	sd_interrupt:
  94              	.LFB64:
  20:sd_manager.c  **** } // CY_ISR(power_interrupt)
  21:sd_manager.c  **** 
  22:sd_manager.c  **** //triggers every second
  23:sd_manager.c  **** CY_ISR(sd_interrupt) {
  95              		.loc 1 23 0
  96              		.cfi_startproc
  97              		@ args = 0, pretend = 0, frame = 0
  98              		@ frame_needed = 1, uses_anonymous_args = 0
  99 0000 80B5     		push	{r7, lr}
 100              		.cfi_def_cfa_offset 8
 101              		.cfi_offset 7, -8
 102              		.cfi_offset 14, -4
 103 0002 00AF     		add	r7, sp, #0
 104              		.cfi_def_cfa_register 7
  24:sd_manager.c  **** 	sd_write();
 105              		.loc 1 24 0
 106 0004 FFF7FEFF 		bl	sd_write
  25:sd_manager.c  **** }
 107              		.loc 1 25 0
 108 0008 80BD     		pop	{r7, pc}
 109              		.cfi_endproc
 110              	.LFE64:
 111              		.size	sd_interrupt, .-sd_interrupt
 112 000a 00BF     		.section	.rodata
 113              		.align	2
 114              	.LC0:
 115 001c 7200     		.ascii	"r\000"
 116 001e 0000     		.align	2
 117              	.LC1:
 118 0020 00       		.ascii	"\000"
 119 0021 000000   		.align	2
 120              	.LC2:
 121 0024 6C6F6773 		.ascii	"logs\000"
 121      00
 122 0029 000000   		.align	2
 123              	.LC3:
 124 002c 5C6C6F67 		.ascii	"\\logs\\%04u-%02u-%02u\000"
 124      735C2530 
 124      34752D25 
 124      3032752D 
 124      25303275 
 125 0041 000000   		.align	2
 126              	.LC4:
 127 0044 25735C28 		.ascii	"%s\\(%04u-%02u-%02u)_%02u.%02u.%02u.csv\000"
 127      25303475 
 127      2D253032 
 127      752D2530 
 127      3275295F 
 128 006b 00       		.align	2
 129              	.LC5:
 130 006c 7700     		.ascii	"w\000"
 131              		.section	.text.sd_init,"ax",%progbits
 132              		.align	2
ARM GAS  D:\Windows\AppData\Local\Temp\cc9Bphjc.s 			page 4


 133              		.global	sd_init
 134              		.thumb
 135              		.thumb_func
 136              		.type	sd_init, %function
 137              	sd_init:
 138              	.LFB65:
  26:sd_manager.c  **** 
  27:sd_manager.c  **** /* sd_init()
  28:sd_manager.c  **** 	Takes Time struct (time). Returns nothing.
  29:sd_manager.c  **** 
  30:sd_manager.c  **** 	Initializes SD card filesystem.
  31:sd_manager.c  **** 	The following events will cause the sd_ok flag to be reset, which aborts all
  32:sd_manager.c  **** 	SD functions:
  33:sd_manager.c  **** 		- the SD card is not found
  34:sd_manager.c  **** 		- unable to create the "LOGS" directory
  35:sd_manager.c  **** 		- unable to create a directory named after the date
  36:sd_manager.c  **** 		- unable to create and open file for writing
  37:sd_manager.c  **** 
  38:sd_manager.c  **** 	sd_ok is set when the SD card is functional */
  39:sd_manager.c  **** void sd_init(Time time) {
 139              		.loc 1 39 0
 140              		.cfi_startproc
 141              		@ args = 0, pretend = 0, frame = 128
 142              		@ frame_needed = 1, uses_anonymous_args = 0
 143 0000 F0B5     		push	{r4, r5, r6, r7, lr}
 144              		.cfi_def_cfa_offset 20
 145              		.cfi_offset 4, -20
 146              		.cfi_offset 5, -16
 147              		.cfi_offset 6, -12
 148              		.cfi_offset 7, -8
 149              		.cfi_offset 14, -4
 150 0002 A7B0     		sub	sp, sp, #156
 151              		.cfi_def_cfa_offset 176
 152 0004 06AF     		add	r7, sp, #24
 153              		.cfi_def_cfa 7, 152
 154 0006 3C46     		mov	r4, r7
 155 0008 84E80F00 		stmia	r4, {r0, r1, r2, r3}
  40:sd_manager.c  **** 	/* power_isr note:
  41:sd_manager.c  **** 		Triggers unexpectedly due to floating pin/environmental voltages and
  42:sd_manager.c  **** 		capacitance. power isr is disabled for prototyping only.	*/
  43:sd_manager.c  **** 	power_comp_Start();
 156              		.loc 1 43 0
 157 000c FFF7FEFF 		bl	power_comp_Start
  44:sd_manager.c  **** 	power_isr_ClearPending();
 158              		.loc 1 44 0
 159 0010 FFF7FEFF 		bl	power_isr_ClearPending
  45:sd_manager.c  **** 	power_isr_StartEx(power_interrupt);
 160              		.loc 1 45 0
 161 0014 5748     		ldr	r0, .L12
 162 0016 FFF7FEFF 		bl	power_isr_StartEx
  46:sd_manager.c  **** 	sd_timer_Start();
 163              		.loc 1 46 0
 164 001a FFF7FEFF 		bl	sd_timer_Start
  47:sd_manager.c  **** 	sd_isr_StartEx(sd_interrupt);
 165              		.loc 1 47 0
 166 001e 5648     		ldr	r0, .L12+4
 167 0020 FFF7FEFF 		bl	sd_isr_StartEx
ARM GAS  D:\Windows\AppData\Local\Temp\cc9Bphjc.s 			page 5


  48:sd_manager.c  ****     
  49:sd_manager.c  **** 	FS_Init();
 168              		.loc 1 49 0
 169 0024 FFF7FEFF 		bl	FS_Init
  50:sd_manager.c  ****     FS_FAT_SupportLFN();            //enable long file name: filenames>8bytes
 170              		.loc 1 50 0
 171 0028 FFF7FEFF 		bl	FS_FAT_SupportLFN
  51:sd_manager.c  **** 	sd_ok = 1;
 172              		.loc 1 51 0
 173 002c 534B     		ldr	r3, .L12+8
 174 002e 0122     		movs	r2, #1
 175 0030 1A70     		strb	r2, [r3]
  52:sd_manager.c  **** 	char date_str[32], file_str[64];
  53:sd_manager.c  **** 
  54:sd_manager.c  **** 	if(FS_GetNumVolumes() == 1) {
 176              		.loc 1 54 0
 177 0032 FFF7FEFF 		bl	FS_GetNumVolumes
 178 0036 0346     		mov	r3, r0
 179 0038 012B     		cmp	r3, #1
 180 003a 40F09580 		bne	.L5
 181              	.LBB2:
  55:sd_manager.c  **** 		FS_SetFileWriteMode(FS_WRITEMODE_FAST);
 182              		.loc 1 55 0
 183 003e 0220     		movs	r0, #2
 184 0040 FFF7FEFF 		bl	FS_SetFileWriteMode
  56:sd_manager.c  **** 		if((pfile = FS_FOpen(format_file, "r")))
 185              		.loc 1 56 0
 186 0044 4E48     		ldr	r0, .L12+12
 187 0046 4F49     		ldr	r1, .L12+16
 188 0048 FFF7FEFF 		bl	FS_FOpen
 189 004c 0246     		mov	r2, r0
 190 004e 4E4B     		ldr	r3, .L12+20
 191 0050 1A60     		str	r2, [r3]
 192 0052 4D4B     		ldr	r3, .L12+20
 193 0054 1B68     		ldr	r3, [r3]
 194 0056 002B     		cmp	r3, #0
 195 0058 02D0     		beq	.L6
  57:sd_manager.c  **** 			FS_FormatSD("");
 196              		.loc 1 57 0
 197 005a 4C48     		ldr	r0, .L12+24
 198 005c FFF7FEFF 		bl	FS_FormatSD
 199              	.L6:
  58:sd_manager.c  ****         sd_time_set(time);          //set time from a file
 200              		.loc 1 58 0
 201 0060 3B46     		mov	r3, r7
 202 0062 0FCB     		ldmia	r3, {r0, r1, r2, r3}
 203 0064 FFF7FEFF 		bl	sd_time_set
  59:sd_manager.c  **** 		
  60:sd_manager.c  ****         //create logs folder
  61:sd_manager.c  **** 		if(FS_ATTR_DIRECTORY != FS_GetFileAttributes("logs")) { // if logs not a dir
 204              		.loc 1 61 0
 205 0068 4948     		ldr	r0, .L12+28
 206 006a FFF7FEFF 		bl	FS_GetFileAttributes
 207 006e 0346     		mov	r3, r0
 208 0070 102B     		cmp	r3, #16
 209 0072 09D0     		beq	.L7
  62:sd_manager.c  **** 			if(FS_MkDir("logs")) {
ARM GAS  D:\Windows\AppData\Local\Temp\cc9Bphjc.s 			page 6


 210              		.loc 1 62 0
 211 0074 4648     		ldr	r0, .L12+28
 212 0076 FFF7FEFF 		bl	FS_MkDir
 213 007a 0346     		mov	r3, r0
 214 007c 002B     		cmp	r3, #0
 215 007e 03D0     		beq	.L7
  63:sd_manager.c  **** 				sd_ok = 0;
 216              		.loc 1 63 0
 217 0080 3E4B     		ldr	r3, .L12+8
 218 0082 0022     		movs	r2, #0
 219 0084 1A70     		strb	r2, [r3]
  64:sd_manager.c  **** 				return;
 220              		.loc 1 64 0
 221 0086 72E0     		b	.L4
 222              	.L7:
  65:sd_manager.c  **** 			} // if logs folder can't be created
  66:sd_manager.c  ****         }
  67:sd_manager.c  **** 
  68:sd_manager.c  **** 
  69:sd_manager.c  **** 
  70:sd_manager.c  **** 		// create date folder 
  71:sd_manager.c  ****         sprintf(date_str, "\\logs\\%04u-%02u-%02u", time.year, time.month, time.day);
 223              		.loc 1 71 0
 224 0088 BB89     		ldrh	r3, [r7, #12]
 225 008a 1D46     		mov	r5, r3
 226 008c 3B78     		ldrb	r3, [r7]	@ zero_extendqisi2
 227 008e 1C46     		mov	r4, r3
 228 0090 7B78     		ldrb	r3, [r7, #1]	@ zero_extendqisi2
 229 0092 1A46     		mov	r2, r3
 230 0094 07F16003 		add	r3, r7, #96
 231 0098 0092     		str	r2, [sp]
 232 009a 1846     		mov	r0, r3
 233 009c 3D49     		ldr	r1, .L12+32
 234 009e 2A46     		mov	r2, r5
 235 00a0 2346     		mov	r3, r4
 236 00a2 FFF7FEFF 		bl	sprintf
  72:sd_manager.c  **** 		if(FS_ATTR_DIRECTORY != FS_GetFileAttributes(date_str)) { // if day not a dir
 237              		.loc 1 72 0
 238 00a6 07F16003 		add	r3, r7, #96
 239 00aa 1846     		mov	r0, r3
 240 00ac FFF7FEFF 		bl	FS_GetFileAttributes
 241 00b0 0346     		mov	r3, r0
 242 00b2 102B     		cmp	r3, #16
 243 00b4 0BD0     		beq	.L9
  73:sd_manager.c  **** 			if(FS_MkDir(date_str)) {
 244              		.loc 1 73 0
 245 00b6 07F16003 		add	r3, r7, #96
 246 00ba 1846     		mov	r0, r3
 247 00bc FFF7FEFF 		bl	FS_MkDir
 248 00c0 0346     		mov	r3, r0
 249 00c2 002B     		cmp	r3, #0
 250 00c4 03D0     		beq	.L9
  74:sd_manager.c  **** 				sd_ok = 0;
 251              		.loc 1 74 0
 252 00c6 2D4B     		ldr	r3, .L12+8
 253 00c8 0022     		movs	r2, #0
 254 00ca 1A70     		strb	r2, [r3]
ARM GAS  D:\Windows\AppData\Local\Temp\cc9Bphjc.s 			page 7


  75:sd_manager.c  **** 				return;
 255              		.loc 1 75 0
 256 00cc 4FE0     		b	.L4
 257              	.L9:
  76:sd_manager.c  **** 			} // if day folder can't be created
  77:sd_manager.c  ****         }
  78:sd_manager.c  ****         
  79:sd_manager.c  ****         // create log file
  80:sd_manager.c  ****         sprintf(file_str, "%s\\(%04u-%02u-%02u)_%02u.%02u.%02u.csv",
  81:sd_manager.c  ****             date_str, time.year, time.month, time.day, time.hour, time.minute, time.second);
 258              		.loc 1 81 0
 259 00ce BB89     		ldrh	r3, [r7, #12]
  80:sd_manager.c  ****             date_str, time.year, time.month, time.day, time.hour, time.minute, time.second);
 260              		.loc 1 80 0
 261 00d0 9E46     		mov	lr, r3
 262              		.loc 1 81 0
 263 00d2 3B78     		ldrb	r3, [r7]	@ zero_extendqisi2
  80:sd_manager.c  ****             date_str, time.year, time.month, time.day, time.hour, time.minute, time.second);
 264              		.loc 1 80 0
 265 00d4 1E46     		mov	r6, r3
 266              		.loc 1 81 0
 267 00d6 7B78     		ldrb	r3, [r7, #1]	@ zero_extendqisi2
  80:sd_manager.c  ****             date_str, time.year, time.month, time.day, time.hour, time.minute, time.second);
 268              		.loc 1 80 0
 269 00d8 1D46     		mov	r5, r3
 270              		.loc 1 81 0
 271 00da BB78     		ldrb	r3, [r7, #2]	@ zero_extendqisi2
  80:sd_manager.c  ****             date_str, time.year, time.month, time.day, time.hour, time.minute, time.second);
 272              		.loc 1 80 0
 273 00dc 1C46     		mov	r4, r3
 274              		.loc 1 81 0
 275 00de FB78     		ldrb	r3, [r7, #3]	@ zero_extendqisi2
  80:sd_manager.c  ****             date_str, time.year, time.month, time.day, time.hour, time.minute, time.second);
 276              		.loc 1 80 0
 277 00e0 1846     		mov	r0, r3
 278              		.loc 1 81 0
 279 00e2 3B79     		ldrb	r3, [r7, #4]	@ zero_extendqisi2
  80:sd_manager.c  ****             date_str, time.year, time.month, time.day, time.hour, time.minute, time.second);
 280              		.loc 1 80 0
 281 00e4 1946     		mov	r1, r3
 282 00e6 07F12002 		add	r2, r7, #32
 283 00ea 07F16003 		add	r3, r7, #96
 284 00ee 0096     		str	r6, [sp]
 285 00f0 0195     		str	r5, [sp, #4]
 286 00f2 0294     		str	r4, [sp, #8]
 287 00f4 0390     		str	r0, [sp, #12]
 288 00f6 0491     		str	r1, [sp, #16]
 289 00f8 1046     		mov	r0, r2
 290 00fa 2749     		ldr	r1, .L12+36
 291 00fc 1A46     		mov	r2, r3
 292 00fe 7346     		mov	r3, lr
 293 0100 FFF7FEFF 		bl	sprintf
  82:sd_manager.c  **** 		pfile = FS_FOpen(file_str, "w"); //create and open new file for writing
 294              		.loc 1 82 0
 295 0104 07F12003 		add	r3, r7, #32
 296 0108 1846     		mov	r0, r3
 297 010a 2449     		ldr	r1, .L12+40
ARM GAS  D:\Windows\AppData\Local\Temp\cc9Bphjc.s 			page 8


 298 010c FFF7FEFF 		bl	FS_FOpen
 299 0110 0246     		mov	r2, r0
 300 0112 1D4B     		ldr	r3, .L12+20
 301 0114 1A60     		str	r2, [r3]
  83:sd_manager.c  **** 		if(pfile == NULL) {
 302              		.loc 1 83 0
 303 0116 1C4B     		ldr	r3, .L12+20
 304 0118 1B68     		ldr	r3, [r3]
 305 011a 002B     		cmp	r3, #0
 306 011c 04D1     		bne	.L10
  84:sd_manager.c  **** 			sd_ok = 0;
 307              		.loc 1 84 0
 308 011e 174B     		ldr	r3, .L12+8
 309 0120 0022     		movs	r2, #0
 310 0122 1A70     		strb	r2, [r3]
  85:sd_manager.c  **** 			return;
 311              		.loc 1 85 0
 312 0124 00BF     		nop
 313 0126 22E0     		b	.L4
 314              	.L10:
  86:sd_manager.c  **** 		} // if file does not exist
  87:sd_manager.c  **** 
  88:sd_manager.c  **** 		// Set file time here
  89:sd_manager.c  **** 		FS_FILETIME file_time;
  90:sd_manager.c  **** 		unsigned long file_timestamp;
  91:sd_manager.c  **** 		
  92:sd_manager.c  **** 		file_time.Year = time.year;
 315              		.loc 1 92 0
 316 0128 BB89     		ldrh	r3, [r7, #12]
 317 012a BB82     		strh	r3, [r7, #20]	@ movhi
  93:sd_manager.c  **** 		file_time.Month = time.month;
 318              		.loc 1 93 0
 319 012c 3B78     		ldrb	r3, [r7]	@ zero_extendqisi2
 320 012e 9BB2     		uxth	r3, r3
 321 0130 FB82     		strh	r3, [r7, #22]	@ movhi
  94:sd_manager.c  **** 		file_time.Day = time.day;
 322              		.loc 1 94 0
 323 0132 7B78     		ldrb	r3, [r7, #1]	@ zero_extendqisi2
 324 0134 9BB2     		uxth	r3, r3
 325 0136 3B83     		strh	r3, [r7, #24]	@ movhi
  95:sd_manager.c  **** 		file_time.Hour = time.hour;
 326              		.loc 1 95 0
 327 0138 BB78     		ldrb	r3, [r7, #2]	@ zero_extendqisi2
 328 013a 9BB2     		uxth	r3, r3
 329 013c 7B83     		strh	r3, [r7, #26]	@ movhi
  96:sd_manager.c  **** 		file_time.Minute = time.minute;
 330              		.loc 1 96 0
 331 013e FB78     		ldrb	r3, [r7, #3]	@ zero_extendqisi2
 332 0140 9BB2     		uxth	r3, r3
 333 0142 BB83     		strh	r3, [r7, #28]	@ movhi
  97:sd_manager.c  **** 		file_time.Second = time.second;
 334              		.loc 1 97 0
 335 0144 3B79     		ldrb	r3, [r7, #4]	@ zero_extendqisi2
 336 0146 9BB2     		uxth	r3, r3
 337 0148 FB83     		strh	r3, [r7, #30]	@ movhi
  98:sd_manager.c  **** 
  99:sd_manager.c  **** 		FS_FileTimeToTimeStamp(&file_time, &file_timestamp);
ARM GAS  D:\Windows\AppData\Local\Temp\cc9Bphjc.s 			page 9


 338              		.loc 1 99 0
 339 014a 07F11402 		add	r2, r7, #20
 340 014e 07F11003 		add	r3, r7, #16
 341 0152 1046     		mov	r0, r2
 342 0154 1946     		mov	r1, r3
 343 0156 FFF7FEFF 		bl	FS_FileTimeToTimeStamp
 100:sd_manager.c  **** 		FS_SetFileTime(file_str, file_timestamp);
 344              		.loc 1 100 0
 345 015a 3B69     		ldr	r3, [r7, #16]
 346 015c 07F12002 		add	r2, r7, #32
 347 0160 1046     		mov	r0, r2
 348 0162 1946     		mov	r1, r3
 349 0164 FFF7FEFF 		bl	FS_SetFileTime
 350              	.L5:
 351              	.LBE2:
 101:sd_manager.c  **** 		/*FS_SetFileTimeEx(file_str, file_timestamp, FS_FILETIME_CREATE);	//doesnt work
 102:sd_manager.c  **** 		FS_SetFileTimeEx(file_str, file_timestamp, FS_FILETIME_ACCESS);
 103:sd_manager.c  **** 		FS_SetFileTimeEx(file_str, file_timestamp, FS_FILETIME_MODIFY);*/
 104:sd_manager.c  **** 	} // if a single file volume exists
 105:sd_manager.c  ****     FS_Sync("");
 352              		.loc 1 105 0 discriminator 1
 353 0168 0848     		ldr	r0, .L12+24
 354 016a FFF7FEFF 		bl	FS_Sync
 355              	.L4:
 106:sd_manager.c  **** } // sd_init()
 356              		.loc 1 106 0
 357 016e 8437     		adds	r7, r7, #132
 358              		.cfi_def_cfa_offset 20
 359 0170 BD46     		mov	sp, r7
 360              		.cfi_def_cfa_register 13
 361              		@ sp needed
 362 0172 F0BD     		pop	{r4, r5, r6, r7, pc}
 363              	.L13:
 364              		.align	2
 365              	.L12:
 366 0174 00000000 		.word	power_interrupt
 367 0178 00000000 		.word	sd_interrupt
 368 017c 00000000 		.word	sd_ok
 369 0180 00000000 		.word	format_file
 370 0184 1C000000 		.word	.LC0
 371 0188 00000000 		.word	pfile
 372 018c 20000000 		.word	.LC1
 373 0190 24000000 		.word	.LC2
 374 0194 2C000000 		.word	.LC3
 375 0198 44000000 		.word	.LC4
 376 019c 6C000000 		.word	.LC5
 377              		.cfi_endproc
 378              	.LFE65:
 379              		.size	sd_init, .-sd_init
 380              		.section	.rodata
 381 006e 0000     		.align	2
 382              	.LC6:
 383 0070 2F3A200D 		.ascii	"/: \015\012\000"
 383      0A00
 384              		.section	.text.sd_time_set,"ax",%progbits
 385              		.align	2
 386              		.global	sd_time_set
ARM GAS  D:\Windows\AppData\Local\Temp\cc9Bphjc.s 			page 10


 387              		.thumb
 388              		.thumb_func
 389              		.type	sd_time_set, %function
 390              	sd_time_set:
 391              	.LFB66:
 107:sd_manager.c  **** 
 108:sd_manager.c  **** 
 109:sd_manager.c  **** /*  Sets the RTC time from a file called set_time.txt if it exists
 110:sd_manager.c  ****     
 111:sd_manager.c  **** 	Enter the following two lines of text in a file called "set_time.txt" in
 112:sd_manager.c  **** 	the /LOGS folder to set the time. The line breaks can consist of \r or
 113:sd_manager.c  **** 	\n characters.
 114:sd_manager.c  **** 	
 115:sd_manager.c  **** 	year/month/day
 116:sd_manager.c  **** 	24-hour:minute:second */
 117:sd_manager.c  **** void sd_time_set(Time time) {
 392              		.loc 1 117 0
 393              		.cfi_startproc
 394              		@ args = 0, pretend = 0, frame = 104
 395              		@ frame_needed = 1, uses_anonymous_args = 0
 396 0000 90B5     		push	{r4, r7, lr}
 397              		.cfi_def_cfa_offset 12
 398              		.cfi_offset 4, -12
 399              		.cfi_offset 7, -8
 400              		.cfi_offset 14, -4
 401 0002 9BB0     		sub	sp, sp, #108
 402              		.cfi_def_cfa_offset 120
 403 0004 00AF     		add	r7, sp, #0
 404              		.cfi_def_cfa_register 7
 405 0006 3C46     		mov	r4, r7
 406 0008 84E80F00 		stmia	r4, {r0, r1, r2, r3}
 118:sd_manager.c  **** 	if((pfile = FS_FOpen(set_time_file, "r"))) {
 407              		.loc 1 118 0
 408 000c 5B48     		ldr	r0, .L23
 409 000e 5C49     		ldr	r1, .L23+4
 410 0010 FFF7FEFF 		bl	FS_FOpen
 411 0014 0246     		mov	r2, r0
 412 0016 5B4B     		ldr	r3, .L23+8
 413 0018 1A60     		str	r2, [r3]
 414 001a 5A4B     		ldr	r3, .L23+8
 415 001c 1B68     		ldr	r3, [r3]
 416 001e 002B     		cmp	r3, #0
 417 0020 00F0A980 		beq	.L14
 418              	.LBB3:
 119:sd_manager.c  **** 		char buffer[64];
 120:sd_manager.c  **** 		char *ptr;
 121:sd_manager.c  **** 		uint16_t num;
 122:sd_manager.c  **** 		Time tmp_time;
 123:sd_manager.c  **** 
 124:sd_manager.c  **** 		FS_Read(pfile, buffer, 64); // read entire file
 419              		.loc 1 124 0
 420 0024 574B     		ldr	r3, .L23+8
 421 0026 1A68     		ldr	r2, [r3]
 422 0028 07F11003 		add	r3, r7, #16
 423 002c 1046     		mov	r0, r2
 424 002e 1946     		mov	r1, r3
 425 0030 4022     		movs	r2, #64
ARM GAS  D:\Windows\AppData\Local\Temp\cc9Bphjc.s 			page 11


 426 0032 FFF7FEFF 		bl	FS_Read
 125:sd_manager.c  **** 		
 126:sd_manager.c  **** 		ptr = strtok(buffer, "/: \r\n"); // year
 427              		.loc 1 126 0
 428 0036 07F11003 		add	r3, r7, #16
 429 003a 1846     		mov	r0, r3
 430 003c 5249     		ldr	r1, .L23+12
 431 003e FFF7FEFF 		bl	strtok
 432 0042 7866     		str	r0, [r7, #100]
 127:sd_manager.c  **** 		num = atoi(ptr);
 433              		.loc 1 127 0
 434 0044 786E     		ldr	r0, [r7, #100]
 435 0046 FFF7FEFF 		bl	atoi
 436 004a 0346     		mov	r3, r0
 437 004c A7F86230 		strh	r3, [r7, #98]	@ movhi
 128:sd_manager.c  **** 		if(num <= 99) tmp_time.year = num;  // 2 digit year
 438              		.loc 1 128 0
 439 0050 B7F86230 		ldrh	r3, [r7, #98]
 440 0054 632B     		cmp	r3, #99
 441 0056 04D8     		bhi	.L16
 442              		.loc 1 128 0 is_stmt 0 discriminator 1
 443 0058 B7F86230 		ldrh	r3, [r7, #98]	@ movhi
 444 005c A7F85C30 		strh	r3, [r7, #92]	@ movhi
 445 0060 12E0     		b	.L17
 446              	.L16:
 129:sd_manager.c  **** 		else if(num >= 1900) tmp_time.year = num % 100; // 4 digit year
 447              		.loc 1 129 0 is_stmt 1
 448 0062 B7F86230 		ldrh	r3, [r7, #98]
 449 0066 40F26B72 		movw	r2, #1899
 450 006a 9342     		cmp	r3, r2
 451 006c 0CD9     		bls	.L17
 452              		.loc 1 129 0 is_stmt 0 discriminator 1
 453 006e B7F86230 		ldrh	r3, [r7, #98]
 454 0072 464A     		ldr	r2, .L23+16
 455 0074 A2FB0312 		umull	r1, r2, r2, r3
 456 0078 5209     		lsrs	r2, r2, #5
 457 007a 6421     		movs	r1, #100
 458 007c 01FB02F2 		mul	r2, r1, r2
 459 0080 9B1A     		subs	r3, r3, r2
 460 0082 9BB2     		uxth	r3, r3
 461 0084 A7F85C30 		strh	r3, [r7, #92]	@ movhi
 462              	.L17:
 130:sd_manager.c  **** 
 131:sd_manager.c  **** 		ptr = strtok(NULL, "/: \r\n"); // month
 463              		.loc 1 131 0 is_stmt 1
 464 0088 0020     		movs	r0, #0
 465 008a 3F49     		ldr	r1, .L23+12
 466 008c FFF7FEFF 		bl	strtok
 467 0090 7866     		str	r0, [r7, #100]
 132:sd_manager.c  **** 		num = atoi(ptr);
 468              		.loc 1 132 0
 469 0092 786E     		ldr	r0, [r7, #100]
 470 0094 FFF7FEFF 		bl	atoi
 471 0098 0346     		mov	r3, r0
 472 009a A7F86230 		strh	r3, [r7, #98]	@ movhi
 133:sd_manager.c  **** 		if(num <= 12) tmp_time.month = num;
 473              		.loc 1 133 0
ARM GAS  D:\Windows\AppData\Local\Temp\cc9Bphjc.s 			page 12


 474 009e B7F86230 		ldrh	r3, [r7, #98]
 475 00a2 0C2B     		cmp	r3, #12
 476 00a4 04D8     		bhi	.L18
 477              		.loc 1 133 0 is_stmt 0 discriminator 1
 478 00a6 B7F86230 		ldrh	r3, [r7, #98]	@ movhi
 479 00aa DBB2     		uxtb	r3, r3
 480 00ac 87F85030 		strb	r3, [r7, #80]
 481              	.L18:
 134:sd_manager.c  **** 		
 135:sd_manager.c  **** 		ptr = strtok(NULL, "/: \r\n"); // day
 482              		.loc 1 135 0 is_stmt 1
 483 00b0 0020     		movs	r0, #0
 484 00b2 3549     		ldr	r1, .L23+12
 485 00b4 FFF7FEFF 		bl	strtok
 486 00b8 7866     		str	r0, [r7, #100]
 136:sd_manager.c  **** 		num = atoi(ptr);
 487              		.loc 1 136 0
 488 00ba 786E     		ldr	r0, [r7, #100]
 489 00bc FFF7FEFF 		bl	atoi
 490 00c0 0346     		mov	r3, r0
 491 00c2 A7F86230 		strh	r3, [r7, #98]	@ movhi
 137:sd_manager.c  **** 		if(num <= 31) tmp_time.day = num;
 492              		.loc 1 137 0
 493 00c6 B7F86230 		ldrh	r3, [r7, #98]
 494 00ca 1F2B     		cmp	r3, #31
 495 00cc 04D8     		bhi	.L19
 496              		.loc 1 137 0 is_stmt 0 discriminator 1
 497 00ce B7F86230 		ldrh	r3, [r7, #98]	@ movhi
 498 00d2 DBB2     		uxtb	r3, r3
 499 00d4 87F85130 		strb	r3, [r7, #81]
 500              	.L19:
 138:sd_manager.c  **** 			
 139:sd_manager.c  **** 		ptr = strtok(NULL, "/: \r\n"); // 24-hour
 501              		.loc 1 139 0 is_stmt 1
 502 00d8 0020     		movs	r0, #0
 503 00da 2B49     		ldr	r1, .L23+12
 504 00dc FFF7FEFF 		bl	strtok
 505 00e0 7866     		str	r0, [r7, #100]
 140:sd_manager.c  **** 		num = atoi(ptr);
 506              		.loc 1 140 0
 507 00e2 786E     		ldr	r0, [r7, #100]
 508 00e4 FFF7FEFF 		bl	atoi
 509 00e8 0346     		mov	r3, r0
 510 00ea A7F86230 		strh	r3, [r7, #98]	@ movhi
 141:sd_manager.c  **** 		if(num <= 23) tmp_time.hour = num;
 511              		.loc 1 141 0
 512 00ee B7F86230 		ldrh	r3, [r7, #98]
 513 00f2 172B     		cmp	r3, #23
 514 00f4 04D8     		bhi	.L20
 515              		.loc 1 141 0 is_stmt 0 discriminator 1
 516 00f6 B7F86230 		ldrh	r3, [r7, #98]	@ movhi
 517 00fa DBB2     		uxtb	r3, r3
 518 00fc 87F85230 		strb	r3, [r7, #82]
 519              	.L20:
 142:sd_manager.c  **** 
 143:sd_manager.c  **** 		ptr = strtok(NULL, "/: \r\n"); // minute
 520              		.loc 1 143 0 is_stmt 1
ARM GAS  D:\Windows\AppData\Local\Temp\cc9Bphjc.s 			page 13


 521 0100 0020     		movs	r0, #0
 522 0102 2149     		ldr	r1, .L23+12
 523 0104 FFF7FEFF 		bl	strtok
 524 0108 7866     		str	r0, [r7, #100]
 144:sd_manager.c  **** 		num = atoi(ptr);
 525              		.loc 1 144 0
 526 010a 786E     		ldr	r0, [r7, #100]
 527 010c FFF7FEFF 		bl	atoi
 528 0110 0346     		mov	r3, r0
 529 0112 A7F86230 		strh	r3, [r7, #98]	@ movhi
 145:sd_manager.c  **** 		if(num <= 59) tmp_time.minute = num;
 530              		.loc 1 145 0
 531 0116 B7F86230 		ldrh	r3, [r7, #98]
 532 011a 3B2B     		cmp	r3, #59
 533 011c 04D8     		bhi	.L21
 534              		.loc 1 145 0 is_stmt 0 discriminator 1
 535 011e B7F86230 		ldrh	r3, [r7, #98]	@ movhi
 536 0122 DBB2     		uxtb	r3, r3
 537 0124 87F85330 		strb	r3, [r7, #83]
 538              	.L21:
 146:sd_manager.c  **** 
 147:sd_manager.c  **** 		ptr = strtok(NULL, "/: \r\n"); // second 
 539              		.loc 1 147 0 is_stmt 1
 540 0128 0020     		movs	r0, #0
 541 012a 1749     		ldr	r1, .L23+12
 542 012c FFF7FEFF 		bl	strtok
 543 0130 7866     		str	r0, [r7, #100]
 148:sd_manager.c  **** 		num = atoi(ptr);
 544              		.loc 1 148 0
 545 0132 786E     		ldr	r0, [r7, #100]
 546 0134 FFF7FEFF 		bl	atoi
 547 0138 0346     		mov	r3, r0
 548 013a A7F86230 		strh	r3, [r7, #98]	@ movhi
 149:sd_manager.c  **** 		if(num <= 59) tmp_time.second = num;
 549              		.loc 1 149 0
 550 013e B7F86230 		ldrh	r3, [r7, #98]
 551 0142 3B2B     		cmp	r3, #59
 552 0144 04D8     		bhi	.L22
 553              		.loc 1 149 0 is_stmt 0 discriminator 1
 554 0146 B7F86230 		ldrh	r3, [r7, #98]	@ movhi
 555 014a DBB2     		uxtb	r3, r3
 556 014c 87F85430 		strb	r3, [r7, #84]
 557              	.L22:
 150:sd_manager.c  **** 
 151:sd_manager.c  **** 		FS_FClose(pfile);
 558              		.loc 1 151 0 is_stmt 1
 559 0150 0C4B     		ldr	r3, .L23+8
 560 0152 1B68     		ldr	r3, [r3]
 561 0154 1846     		mov	r0, r3
 562 0156 FFF7FEFF 		bl	FS_FClose
 152:sd_manager.c  **** 
 153:sd_manager.c  **** 		time_set(tmp_time); // set the new time
 563              		.loc 1 153 0
 564 015a 07F15003 		add	r3, r7, #80
 565 015e 0FCB     		ldmia	r3, {r0, r1, r2, r3}
 566 0160 FFF7FEFF 		bl	time_set
 154:sd_manager.c  **** 		time = tmp_time; // use new time for file names
ARM GAS  D:\Windows\AppData\Local\Temp\cc9Bphjc.s 			page 14


 567              		.loc 1 154 0
 568 0164 3C46     		mov	r4, r7
 569 0166 07F15003 		add	r3, r7, #80
 570 016a 0FCB     		ldmia	r3, {r0, r1, r2, r3}
 571 016c 84E80F00 		stmia	r4, {r0, r1, r2, r3}
 155:sd_manager.c  **** 		
 156:sd_manager.c  **** 		FS_Remove(set_time_file); // delete file
 572              		.loc 1 156 0
 573 0170 0248     		ldr	r0, .L23
 574 0172 FFF7FEFF 		bl	FS_Remove
 575              	.L14:
 576              	.LBE3:
 157:sd_manager.c  **** 	} // try to find file and set time
 158:sd_manager.c  **** } //sd_time_set()
 577              		.loc 1 158 0
 578 0176 6C37     		adds	r7, r7, #108
 579              		.cfi_def_cfa_offset 12
 580 0178 BD46     		mov	sp, r7
 581              		.cfi_def_cfa_register 13
 582              		@ sp needed
 583 017a 90BD     		pop	{r4, r7, pc}
 584              	.L24:
 585              		.align	2
 586              	.L23:
 587 017c 00000000 		.word	set_time_file
 588 0180 1C000000 		.word	.LC0
 589 0184 00000000 		.word	pfile
 590 0188 70000000 		.word	.LC6
 591 018c 1F85EB51 		.word	1374389535
 592              		.cfi_endproc
 593              	.LFE66:
 594              		.size	sd_time_set, .-sd_time_set
 595              		.section	.rodata
 596 0076 0000     		.align	2
 597              	.LC7:
 598 0078 25582C25 		.ascii	"%X,%u,%X,%X,%X,%X,%X,%X,%X,%X\012\000"
 598      752C2558 
 598      2C25582C 
 598      25582C25 
 598      582C2558 
 599              		.section	.text.sd_write,"ax",%progbits
 600              		.align	2
 601              		.global	sd_write
 602              		.thumb
 603              		.thumb_func
 604              		.type	sd_write, %function
 605              	sd_write:
 606              	.LFB67:
 159:sd_manager.c  **** 
 160:sd_manager.c  **** 
 161:sd_manager.c  **** /* sd_write()
 162:sd_manager.c  **** 	Writes current to the SD card. 
 163:sd_manager.c  **** 	Synchronizes the filesystem after it is  written. */
 164:sd_manager.c  **** void sd_write() {
 607              		.loc 1 164 0
 608              		.cfi_startproc
 609              		@ args = 0, pretend = 0, frame = 72
ARM GAS  D:\Windows\AppData\Local\Temp\cc9Bphjc.s 			page 15


 610              		@ frame_needed = 1, uses_anonymous_args = 0
 611 0000 2DE9F043 		push	{r4, r5, r6, r7, r8, r9, lr}
 612              		.cfi_def_cfa_offset 28
 613              		.cfi_offset 4, -28
 614              		.cfi_offset 5, -24
 615              		.cfi_offset 6, -20
 616              		.cfi_offset 7, -16
 617              		.cfi_offset 8, -12
 618              		.cfi_offset 9, -8
 619              		.cfi_offset 14, -4
 620 0004 9BB0     		sub	sp, sp, #108
 621              		.cfi_def_cfa_offset 136
 622 0006 08AF     		add	r7, sp, #32
 623              		.cfi_def_cfa 7, 104
 165:sd_manager.c  **** 	if(!sd_ok) return;
 624              		.loc 1 165 0
 625 0008 4D4B     		ldr	r3, .L30
 626 000a 1B78     		ldrb	r3, [r3]	@ zero_extendqisi2
 627 000c 002B     		cmp	r3, #0
 628 000e 00F09280 		beq	.L25
 166:sd_manager.c  **** 
 167:sd_manager.c  **** 	char buffer[64];
 168:sd_manager.c  **** 	short length = 0;
 629              		.loc 1 168 0
 630 0012 0023     		movs	r3, #0
 631 0014 A7F84630 		strh	r3, [r7, #70]	@ movhi
 169:sd_manager.c  **** 	
 170:sd_manager.c  ****     uint8_t atomic_state = CyEnterCriticalSection(); // BEGIN ATOMIC
 632              		.loc 1 170 0
 633 0018 FFF7FEFF 		bl	CyEnterCriticalSection
 634 001c 0346     		mov	r3, r0
 635 001e 87F84530 		strb	r3, [r7, #69]
 171:sd_manager.c  **** 	for(sd_head=0; sd_head<sd_tail; sd_head++) {
 636              		.loc 1 171 0
 637 0022 484B     		ldr	r3, .L30+4
 638 0024 0022     		movs	r2, #0
 639 0026 1A80     		strh	r2, [r3]	@ movhi
 640 0028 71E0     		b	.L28
 641              	.L29:
 172:sd_manager.c  **** 		length = sprintf(buffer, "%X,%u,%X,%X,%X,%X,%X,%X,%X,%X\n",
 173:sd_manager.c  **** 			(unsigned)sd_queue[sd_head].id,
 642              		.loc 1 173 0 discriminator 3
 643 002a 464B     		ldr	r3, .L30+4
 644 002c 1B88     		ldrh	r3, [r3]
 645 002e 464A     		ldr	r2, .L30+8
 646 0030 1B01     		lsls	r3, r3, #4
 647 0032 1344     		add	r3, r3, r2
 648 0034 9B88     		ldrh	r3, [r3, #4]
 172:sd_manager.c  **** 		length = sprintf(buffer, "%X,%u,%X,%X,%X,%X,%X,%X,%X,%X\n",
 649              		.loc 1 172 0 discriminator 3
 650 0036 9946     		mov	r9, r3
 174:sd_manager.c  **** 			MILLI_PERIOD - (unsigned)sd_queue[sd_head].millicounter,
 651              		.loc 1 174 0 discriminator 3
 652 0038 424B     		ldr	r3, .L30+4
 653 003a 1B88     		ldrh	r3, [r3]
 654 003c 424A     		ldr	r2, .L30+8
 655 003e 1B01     		lsls	r3, r3, #4
ARM GAS  D:\Windows\AppData\Local\Temp\cc9Bphjc.s 			page 16


 656 0040 1344     		add	r3, r3, r2
 657 0042 1A68     		ldr	r2, [r3]
 172:sd_manager.c  **** 		length = sprintf(buffer, "%X,%u,%X,%X,%X,%X,%X,%X,%X,%X\n",
 658              		.loc 1 172 0 discriminator 3
 659 0044 414B     		ldr	r3, .L30+12
 660 0046 9B1A     		subs	r3, r3, r2
 175:sd_manager.c  **** 			(unsigned)sd_queue[sd_head].data[0],
 661              		.loc 1 175 0 discriminator 3
 662 0048 3E4A     		ldr	r2, .L30+4
 663 004a 1288     		ldrh	r2, [r2]
 664 004c 3E49     		ldr	r1, .L30+8
 665 004e 1201     		lsls	r2, r2, #4
 666 0050 0A44     		add	r2, r2, r1
 667 0052 D279     		ldrb	r2, [r2, #7]	@ zero_extendqisi2
 172:sd_manager.c  **** 		length = sprintf(buffer, "%X,%u,%X,%X,%X,%X,%X,%X,%X,%X\n",
 668              		.loc 1 172 0 discriminator 3
 669 0054 9046     		mov	r8, r2
 176:sd_manager.c  **** 			(unsigned)sd_queue[sd_head].data[1],
 670              		.loc 1 176 0 discriminator 3
 671 0056 3B4A     		ldr	r2, .L30+4
 672 0058 1288     		ldrh	r2, [r2]
 673 005a 3B49     		ldr	r1, .L30+8
 674 005c 1201     		lsls	r2, r2, #4
 675 005e 0A44     		add	r2, r2, r1
 676 0060 0132     		adds	r2, r2, #1
 677 0062 D279     		ldrb	r2, [r2, #7]	@ zero_extendqisi2
 172:sd_manager.c  **** 			(unsigned)sd_queue[sd_head].id,
 678              		.loc 1 172 0 discriminator 3
 679 0064 9446     		mov	ip, r2
 177:sd_manager.c  **** 			(unsigned)sd_queue[sd_head].data[2],
 680              		.loc 1 177 0 discriminator 3
 681 0066 374A     		ldr	r2, .L30+4
 682 0068 1288     		ldrh	r2, [r2]
 683 006a 3749     		ldr	r1, .L30+8
 684 006c 1201     		lsls	r2, r2, #4
 685 006e 0A44     		add	r2, r2, r1
 686 0070 0232     		adds	r2, r2, #2
 687 0072 D279     		ldrb	r2, [r2, #7]	@ zero_extendqisi2
 172:sd_manager.c  **** 			(unsigned)sd_queue[sd_head].id,
 688              		.loc 1 172 0 discriminator 3
 689 0074 9646     		mov	lr, r2
 178:sd_manager.c  **** 			(unsigned)sd_queue[sd_head].data[3],
 690              		.loc 1 178 0 discriminator 3
 691 0076 334A     		ldr	r2, .L30+4
 692 0078 1288     		ldrh	r2, [r2]
 693 007a 3349     		ldr	r1, .L30+8
 694 007c 1201     		lsls	r2, r2, #4
 695 007e 0A44     		add	r2, r2, r1
 696 0080 0332     		adds	r2, r2, #3
 697 0082 D279     		ldrb	r2, [r2, #7]	@ zero_extendqisi2
 172:sd_manager.c  **** 			(unsigned)sd_queue[sd_head].id,
 698              		.loc 1 172 0 discriminator 3
 699 0084 1646     		mov	r6, r2
 179:sd_manager.c  **** 			(unsigned)sd_queue[sd_head].data[4],
 700              		.loc 1 179 0 discriminator 3
 701 0086 2F4A     		ldr	r2, .L30+4
 702 0088 1288     		ldrh	r2, [r2]
ARM GAS  D:\Windows\AppData\Local\Temp\cc9Bphjc.s 			page 17


 703 008a 2F49     		ldr	r1, .L30+8
 704 008c 1201     		lsls	r2, r2, #4
 705 008e 0A44     		add	r2, r2, r1
 706 0090 0432     		adds	r2, r2, #4
 707 0092 D279     		ldrb	r2, [r2, #7]	@ zero_extendqisi2
 172:sd_manager.c  **** 			(unsigned)sd_queue[sd_head].id,
 708              		.loc 1 172 0 discriminator 3
 709 0094 1546     		mov	r5, r2
 180:sd_manager.c  **** 			(unsigned)sd_queue[sd_head].data[5],
 710              		.loc 1 180 0 discriminator 3
 711 0096 2B4A     		ldr	r2, .L30+4
 712 0098 1288     		ldrh	r2, [r2]
 713 009a 2B49     		ldr	r1, .L30+8
 714 009c 1201     		lsls	r2, r2, #4
 715 009e 0A44     		add	r2, r2, r1
 716 00a0 0532     		adds	r2, r2, #5
 717 00a2 D279     		ldrb	r2, [r2, #7]	@ zero_extendqisi2
 172:sd_manager.c  **** 			(unsigned)sd_queue[sd_head].id,
 718              		.loc 1 172 0 discriminator 3
 719 00a4 1446     		mov	r4, r2
 181:sd_manager.c  **** 			(unsigned)sd_queue[sd_head].data[6],
 720              		.loc 1 181 0 discriminator 3
 721 00a6 274A     		ldr	r2, .L30+4
 722 00a8 1288     		ldrh	r2, [r2]
 723 00aa 2749     		ldr	r1, .L30+8
 724 00ac 1201     		lsls	r2, r2, #4
 725 00ae 0A44     		add	r2, r2, r1
 726 00b0 0632     		adds	r2, r2, #6
 727 00b2 D279     		ldrb	r2, [r2, #7]	@ zero_extendqisi2
 172:sd_manager.c  **** 			(unsigned)sd_queue[sd_head].id,
 728              		.loc 1 172 0 discriminator 3
 729 00b4 1046     		mov	r0, r2
 182:sd_manager.c  **** 			(unsigned)sd_queue[sd_head].data[7]);
 730              		.loc 1 182 0 discriminator 3
 731 00b6 234A     		ldr	r2, .L30+4
 732 00b8 1288     		ldrh	r2, [r2]
 733 00ba 2349     		ldr	r1, .L30+8
 734 00bc 1201     		lsls	r2, r2, #4
 735 00be 0A44     		add	r2, r2, r1
 736 00c0 0732     		adds	r2, r2, #7
 737 00c2 D279     		ldrb	r2, [r2, #7]	@ zero_extendqisi2
 172:sd_manager.c  **** 			(unsigned)sd_queue[sd_head].id,
 738              		.loc 1 172 0 discriminator 3
 739 00c4 1146     		mov	r1, r2
 740 00c6 3A1D     		adds	r2, r7, #4
 741 00c8 CDF80080 		str	r8, [sp]
 742 00cc CDF804C0 		str	ip, [sp, #4]
 743 00d0 CDF808E0 		str	lr, [sp, #8]
 744 00d4 0396     		str	r6, [sp, #12]
 745 00d6 0495     		str	r5, [sp, #16]
 746 00d8 0594     		str	r4, [sp, #20]
 747 00da 0690     		str	r0, [sp, #24]
 748 00dc 0791     		str	r1, [sp, #28]
 749 00de 1046     		mov	r0, r2
 750 00e0 1B49     		ldr	r1, .L30+16
 751 00e2 4A46     		mov	r2, r9
 752 00e4 FFF7FEFF 		bl	sprintf
ARM GAS  D:\Windows\AppData\Local\Temp\cc9Bphjc.s 			page 18


 753 00e8 0346     		mov	r3, r0
 754 00ea A7F84630 		strh	r3, [r7, #70]	@ movhi
 183:sd_manager.c  **** 
 184:sd_manager.c  **** 		FS_Write(pfile, buffer, length); // write to SD
 755              		.loc 1 184 0 discriminator 3
 756 00ee 194B     		ldr	r3, .L30+20
 757 00f0 1968     		ldr	r1, [r3]
 758 00f2 B7F94630 		ldrsh	r3, [r7, #70]
 759 00f6 3A1D     		adds	r2, r7, #4
 760 00f8 0846     		mov	r0, r1
 761 00fa 1146     		mov	r1, r2
 762 00fc 1A46     		mov	r2, r3
 763 00fe FFF7FEFF 		bl	FS_Write
 171:sd_manager.c  **** 		length = sprintf(buffer, "%X,%u,%X,%X,%X,%X,%X,%X,%X,%X\n",
 764              		.loc 1 171 0 discriminator 3
 765 0102 104B     		ldr	r3, .L30+4
 766 0104 1B88     		ldrh	r3, [r3]
 767 0106 0133     		adds	r3, r3, #1
 768 0108 9AB2     		uxth	r2, r3
 769 010a 0E4B     		ldr	r3, .L30+4
 770 010c 1A80     		strh	r2, [r3]	@ movhi
 771              	.L28:
 171:sd_manager.c  **** 		length = sprintf(buffer, "%X,%u,%X,%X,%X,%X,%X,%X,%X,%X\n",
 772              		.loc 1 171 0 is_stmt 0 discriminator 1
 773 010e 0D4B     		ldr	r3, .L30+4
 774 0110 1A88     		ldrh	r2, [r3]
 775 0112 114B     		ldr	r3, .L30+24
 776 0114 1B88     		ldrh	r3, [r3]
 777 0116 9A42     		cmp	r2, r3
 778 0118 87D3     		bcc	.L29
 185:sd_manager.c  **** 	}
 186:sd_manager.c  **** 	FS_Sync(""); // sync to SD
 779              		.loc 1 186 0 is_stmt 1
 780 011a 1048     		ldr	r0, .L30+28
 781 011c FFF7FEFF 		bl	FS_Sync
 187:sd_manager.c  **** 	sd_head=0; sd_tail=0;
 782              		.loc 1 187 0
 783 0120 084B     		ldr	r3, .L30+4
 784 0122 0022     		movs	r2, #0
 785 0124 1A80     		strh	r2, [r3]	@ movhi
 786 0126 0C4B     		ldr	r3, .L30+24
 787 0128 0022     		movs	r2, #0
 788 012a 1A80     		strh	r2, [r3]	@ movhi
 188:sd_manager.c  ****     CyExitCriticalSection(atomic_state);               // END ATOMIC
 789              		.loc 1 188 0
 790 012c 97F84530 		ldrb	r3, [r7, #69]	@ zero_extendqisi2
 791 0130 1846     		mov	r0, r3
 792 0132 FFF7FEFF 		bl	CyExitCriticalSection
 793              	.L25:
 189:sd_manager.c  **** } // sd_write()
 794              		.loc 1 189 0
 795 0136 4C37     		adds	r7, r7, #76
 796              		.cfi_def_cfa_offset 28
 797 0138 BD46     		mov	sp, r7
 798              		.cfi_def_cfa_register 13
 799              		@ sp needed
 800 013a BDE8F083 		pop	{r4, r5, r6, r7, r8, r9, pc}
ARM GAS  D:\Windows\AppData\Local\Temp\cc9Bphjc.s 			page 19


 801              	.L31:
 802 013e 00BF     		.align	2
 803              	.L30:
 804 0140 00000000 		.word	sd_ok
 805 0144 00000000 		.word	sd_head
 806 0148 00000000 		.word	sd_queue
 807 014c 002E9302 		.word	43200000
 808 0150 78000000 		.word	.LC7
 809 0154 00000000 		.word	pfile
 810 0158 00000000 		.word	sd_tail
 811 015c 20000000 		.word	.LC1
 812              		.cfi_endproc
 813              	.LFE67:
 814              		.size	sd_write, .-sd_write
 815              		.section	.rodata
 816 0097 00       		.align	2
 817              	.LC8:
 818 0098 66696C65 		.ascii	"filenamehere\000"
 818      6E616D65 
 818      68657265 
 818      00
 819              		.section	.text.sd_read,"ax",%progbits
 820              		.align	2
 821              		.global	sd_read
 822              		.thumb
 823              		.thumb_func
 824              		.type	sd_read, %function
 825              	sd_read:
 826              	.LFB68:
 190:sd_manager.c  **** 
 191:sd_manager.c  **** 
 192:sd_manager.c  **** void sd_read() {
 827              		.loc 1 192 0
 828              		.cfi_startproc
 829              		@ args = 0, pretend = 0, frame = 64
 830              		@ frame_needed = 1, uses_anonymous_args = 0
 831 0000 80B5     		push	{r7, lr}
 832              		.cfi_def_cfa_offset 8
 833              		.cfi_offset 7, -8
 834              		.cfi_offset 14, -4
 835 0002 90B0     		sub	sp, sp, #64
 836              		.cfi_def_cfa_offset 72
 837 0004 00AF     		add	r7, sp, #0
 838              		.cfi_def_cfa_register 7
 193:sd_manager.c  **** 	if((pfile = FS_FOpen("filenamehere", "r"))) {	//open file for reading
 839              		.loc 1 193 0
 840 0006 0D48     		ldr	r0, .L34
 841 0008 0D49     		ldr	r1, .L34+4
 842 000a FFF7FEFF 		bl	FS_FOpen
 843 000e 0246     		mov	r2, r0
 844 0010 0C4B     		ldr	r3, .L34+8
 845 0012 1A60     		str	r2, [r3]
 846 0014 0B4B     		ldr	r3, .L34+8
 847 0016 1B68     		ldr	r3, [r3]
 848 0018 002B     		cmp	r3, #0
 849 001a 0CD0     		beq	.L32
 850              	.LBB4:
ARM GAS  D:\Windows\AppData\Local\Temp\cc9Bphjc.s 			page 20


 194:sd_manager.c  **** 		char buffer[64];
 195:sd_manager.c  **** 		//Time time;
 196:sd_manager.c  **** 		//DataPacket msg;
 197:sd_manager.c  **** 		FS_Read(pfile, buffer, 64); // read entire file
 851              		.loc 1 197 0
 852 001c 094B     		ldr	r3, .L34+8
 853 001e 1A68     		ldr	r2, [r3]
 854 0020 3B46     		mov	r3, r7
 855 0022 1046     		mov	r0, r2
 856 0024 1946     		mov	r1, r3
 857 0026 4022     		movs	r2, #64
 858 0028 FFF7FEFF 		bl	FS_Read
 198:sd_manager.c  **** 		FS_FClose(pfile);
 859              		.loc 1 198 0
 860 002c 054B     		ldr	r3, .L34+8
 861 002e 1B68     		ldr	r3, [r3]
 862 0030 1846     		mov	r0, r3
 863 0032 FFF7FEFF 		bl	FS_FClose
 864              	.L32:
 865              	.LBE4:
 199:sd_manager.c  **** 	}
 200:sd_manager.c  **** }
 866              		.loc 1 200 0
 867 0036 4037     		adds	r7, r7, #64
 868              		.cfi_def_cfa_offset 8
 869 0038 BD46     		mov	sp, r7
 870              		.cfi_def_cfa_register 13
 871              		@ sp needed
 872 003a 80BD     		pop	{r7, pc}
 873              	.L35:
 874              		.align	2
 875              	.L34:
 876 003c 98000000 		.word	.LC8
 877 0040 1C000000 		.word	.LC0
 878 0044 00000000 		.word	pfile
 879              		.cfi_endproc
 880              	.LFE68:
 881              		.size	sd_read, .-sd_read
 882              		.section	.text.sd_buffer,"ax",%progbits
 883              		.align	2
 884              		.global	sd_buffer
 885              		.thumb
 886              		.thumb_func
 887              		.type	sd_buffer, %function
 888              	sd_buffer:
 889              	.LFB69:
 201:sd_manager.c  **** 
 202:sd_manager.c  **** 
 203:sd_manager.c  **** void sd_buffer(DataPacket * msg) {
 890              		.loc 1 203 0
 891              		.cfi_startproc
 892              		@ args = 0, pretend = 0, frame = 8
 893              		@ frame_needed = 1, uses_anonymous_args = 0
 894              		@ link register save eliminated.
 895 0000 90B4     		push	{r4, r7}
 896              		.cfi_def_cfa_offset 8
 897              		.cfi_offset 4, -8
ARM GAS  D:\Windows\AppData\Local\Temp\cc9Bphjc.s 			page 21


 898              		.cfi_offset 7, -4
 899 0002 82B0     		sub	sp, sp, #8
 900              		.cfi_def_cfa_offset 16
 901 0004 00AF     		add	r7, sp, #0
 902              		.cfi_def_cfa_register 7
 903 0006 7860     		str	r0, [r7, #4]
 204:sd_manager.c  **** 	sd_queue[sd_tail] = *msg;
 904              		.loc 1 204 0
 905 0008 0F4B     		ldr	r3, .L39
 906 000a 1B88     		ldrh	r3, [r3]
 907 000c 0F4A     		ldr	r2, .L39+4
 908 000e 1B01     		lsls	r3, r3, #4
 909 0010 1A44     		add	r2, r2, r3
 910 0012 7B68     		ldr	r3, [r7, #4]
 911 0014 1446     		mov	r4, r2
 912 0016 0FCB     		ldmia	r3, {r0, r1, r2, r3}
 913 0018 84E80F00 		stmia	r4, {r0, r1, r2, r3}
 205:sd_manager.c  **** 	sd_tail = ((sd_tail == SD_QUEUE_LENGTH-1) ? sd_tail:sd_tail++);	//if buffer full stay at tail
 914              		.loc 1 205 0
 915 001c 0A4B     		ldr	r3, .L39
 916 001e 1B88     		ldrh	r3, [r3]
 917 0020 40F2FF32 		movw	r2, #1023
 918 0024 9342     		cmp	r3, r2
 919 0026 06D0     		beq	.L37
 920              		.loc 1 205 0 is_stmt 0 discriminator 1
 921 0028 074B     		ldr	r3, .L39
 922 002a 1B88     		ldrh	r3, [r3]
 923 002c 5A1C     		adds	r2, r3, #1
 924 002e 91B2     		uxth	r1, r2
 925 0030 054A     		ldr	r2, .L39
 926 0032 1180     		strh	r1, [r2]	@ movhi
 927 0034 01E0     		b	.L38
 928              	.L37:
 929              		.loc 1 205 0 discriminator 2
 930 0036 044B     		ldr	r3, .L39
 931 0038 1B88     		ldrh	r3, [r3]
 932              	.L38:
 933              		.loc 1 205 0 discriminator 4
 934 003a 034A     		ldr	r2, .L39
 935 003c 1380     		strh	r3, [r2]	@ movhi
 206:sd_manager.c  **** }
 936              		.loc 1 206 0 is_stmt 1 discriminator 4
 937 003e 0837     		adds	r7, r7, #8
 938              		.cfi_def_cfa_offset 8
 939 0040 BD46     		mov	sp, r7
 940              		.cfi_def_cfa_register 13
 941              		@ sp needed
 942 0042 90BC     		pop	{r4, r7}
 943              		.cfi_restore 7
 944              		.cfi_restore 4
 945              		.cfi_def_cfa_offset 0
 946 0044 7047     		bx	lr
 947              	.L40:
 948 0046 00BF     		.align	2
 949              	.L39:
 950 0048 00000000 		.word	sd_tail
 951 004c 00000000 		.word	sd_queue
ARM GAS  D:\Windows\AppData\Local\Temp\cc9Bphjc.s 			page 22


 952              		.cfi_endproc
 953              	.LFE69:
 954              		.size	sd_buffer, .-sd_buffer
 955              		.section	.text.sd_stop,"ax",%progbits
 956              		.align	2
 957              		.global	sd_stop
 958              		.thumb
 959              		.thumb_func
 960              		.type	sd_stop, %function
 961              	sd_stop:
 962              	.LFB70:
 207:sd_manager.c  **** /* sd_stop()
 208:sd_manager.c  **** 	Takes and returns nothing.
 209:sd_manager.c  **** 	Closes the file, synchronizes, and unmounts SD card to prevent corruption.
 210:sd_manager.c  **** */
 211:sd_manager.c  **** void sd_stop(void) {
 963              		.loc 1 211 0
 964              		.cfi_startproc
 965              		@ args = 0, pretend = 0, frame = 0
 966              		@ frame_needed = 1, uses_anonymous_args = 0
 967 0000 80B5     		push	{r7, lr}
 968              		.cfi_def_cfa_offset 8
 969              		.cfi_offset 7, -8
 970              		.cfi_offset 14, -4
 971 0002 00AF     		add	r7, sp, #0
 972              		.cfi_def_cfa_register 7
 212:sd_manager.c  **** 	sd_write();
 973              		.loc 1 212 0
 974 0004 FFF7FEFF 		bl	sd_write
 213:sd_manager.c  **** 	FS_FClose(pfile);
 975              		.loc 1 213 0
 976 0008 054B     		ldr	r3, .L42
 977 000a 1B68     		ldr	r3, [r3]
 978 000c 1846     		mov	r0, r3
 979 000e FFF7FEFF 		bl	FS_FClose
 214:sd_manager.c  **** 	FS_Sync("");
 980              		.loc 1 214 0
 981 0012 0448     		ldr	r0, .L42+4
 982 0014 FFF7FEFF 		bl	FS_Sync
 215:sd_manager.c  **** 	FS_Unmount("");
 983              		.loc 1 215 0
 984 0018 0248     		ldr	r0, .L42+4
 985 001a FFF7FEFF 		bl	FS_Unmount
 216:sd_manager.c  **** } // sd_stop()
 986              		.loc 1 216 0
 987 001e 80BD     		pop	{r7, pc}
 988              	.L43:
 989              		.align	2
 990              	.L42:
 991 0020 00000000 		.word	pfile
 992 0024 20000000 		.word	.LC1
 993              		.cfi_endproc
 994              	.LFE70:
 995              		.size	sd_stop, .-sd_stop
 996              		.section	.rodata
 997 00a5 000000   		.align	2
 998              	.LC9:
ARM GAS  D:\Windows\AppData\Local\Temp\cc9Bphjc.s 			page 23


 999 00a8 54797065 		.ascii	"Type,Time,Value,ID\012\000"
 999      2C54696D 
 999      652C5661 
 999      6C75652C 
 999      49440A00 
 1000              		.align	2
 1001              	.LC10:
 1002 00bc 25752C25 		.ascii	"%u,%u,%llu,%u\012\000"
 1002      752C256C 
 1002      6C752C25 
 1002      750A00
 1003 00cb 00       		.section	.text.sd_writetest,"ax",%progbits
 1004              		.align	2
 1005              		.global	sd_writetest
 1006              		.thumb
 1007              		.thumb_func
 1008              		.type	sd_writetest, %function
 1009              	sd_writetest:
 1010              	.LFB71:
 217:sd_manager.c  **** 
 218:sd_manager.c  **** 
 219:sd_manager.c  **** void sd_writetest() {
 1011              		.loc 1 219 0
 1012              		.cfi_startproc
 1013              		@ args = 0, pretend = 0, frame = 136
 1014              		@ frame_needed = 1, uses_anonymous_args = 0
 1015 0000 80B5     		push	{r7, lr}
 1016              		.cfi_def_cfa_offset 8
 1017              		.cfi_offset 7, -8
 1018              		.cfi_offset 14, -4
 1019 0002 A6B0     		sub	sp, sp, #152
 1020              		.cfi_def_cfa_offset 160
 1021 0004 04AF     		add	r7, sp, #16
 1022              		.cfi_def_cfa 7, 144
 220:sd_manager.c  **** 	// test data writing
 221:sd_manager.c  **** 	char buffer[128];
 222:sd_manager.c  **** 	short length = 0;
 1023              		.loc 1 222 0
 1024 0006 0023     		movs	r3, #0
 1025 0008 A7F88630 		strh	r3, [r7, #134]	@ movhi
 223:sd_manager.c  **** 
 224:sd_manager.c  **** 	// test write
 225:sd_manager.c  **** 	FS_Write(pfile, "Type,Time,Value,ID\n", 19);
 1026              		.loc 1 225 0
 1027 000c 164B     		ldr	r3, .L45
 1028 000e 1B68     		ldr	r3, [r3]
 1029 0010 1846     		mov	r0, r3
 1030 0012 1649     		ldr	r1, .L45+4
 1031 0014 1322     		movs	r2, #19
 1032 0016 FFF7FEFF 		bl	FS_Write
 226:sd_manager.c  **** 	length = sprintf(buffer, "%u,%u,%llu,%u\n",
 1033              		.loc 1 226 0
 1034 001a 391D     		adds	r1, r7, #4
 1035 001c 4FF0FF32 		mov	r2, #-1
 1036 0020 4FF0FF33 		mov	r3, #-1
 1037 0024 CDE90023 		strd	r2, [sp]
 1038 0028 40F20523 		movw	r3, #517
ARM GAS  D:\Windows\AppData\Local\Temp\cc9Bphjc.s 			page 24


 1039 002c 0293     		str	r3, [sp, #8]
 1040 002e 0846     		mov	r0, r1
 1041 0030 0F49     		ldr	r1, .L45+8
 1042 0032 0122     		movs	r2, #1
 1043 0034 4FF0FF33 		mov	r3, #-1
 1044 0038 FFF7FEFF 		bl	sprintf
 1045 003c 0346     		mov	r3, r0
 1046 003e A7F88630 		strh	r3, [r7, #134]	@ movhi
 227:sd_manager.c  **** 		1,0xFFFFFFFF, 0xFFFFFFFFFFFFFFFF, 517);
 228:sd_manager.c  **** 	FS_Write(pfile, buffer, length);
 1047              		.loc 1 228 0
 1048 0042 094B     		ldr	r3, .L45
 1049 0044 1968     		ldr	r1, [r3]
 1050 0046 B7F98630 		ldrsh	r3, [r7, #134]
 1051 004a 3A1D     		adds	r2, r7, #4
 1052 004c 0846     		mov	r0, r1
 1053 004e 1146     		mov	r1, r2
 1054 0050 1A46     		mov	r2, r3
 1055 0052 FFF7FEFF 		bl	FS_Write
 229:sd_manager.c  **** 
 230:sd_manager.c  **** 	sd_stop(); // for testing
 1056              		.loc 1 230 0
 1057 0056 FFF7FEFF 		bl	sd_stop
 231:sd_manager.c  **** 	sd_ok = 0; // for testing
 1058              		.loc 1 231 0
 1059 005a 064B     		ldr	r3, .L45+12
 1060 005c 0022     		movs	r2, #0
 1061 005e 1A70     		strb	r2, [r3]
 232:sd_manager.c  **** }//test_push
 1062              		.loc 1 232 0
 1063 0060 8837     		adds	r7, r7, #136
 1064              		.cfi_def_cfa_offset 8
 1065 0062 BD46     		mov	sp, r7
 1066              		.cfi_def_cfa_register 13
 1067              		@ sp needed
 1068 0064 80BD     		pop	{r7, pc}
 1069              	.L46:
 1070 0066 00BF     		.align	2
 1071              	.L45:
 1072 0068 00000000 		.word	pfile
 1073 006c A8000000 		.word	.LC9
 1074 0070 BC000000 		.word	.LC10
 1075 0074 00000000 		.word	sd_ok
 1076              		.cfi_endproc
 1077              	.LFE71:
 1078              		.size	sd_writetest, .-sd_writetest
 1079              		.text
 1080              	.Letext0:
 1081              		.file 2 "d:\\programming\\cypress\\psoc creator\\4.0\\psoc creator\\import\\gnu\\arm\\4.9.3\\arm-n
 1082              		.file 3 "d:\\programming\\cypress\\psoc creator\\4.0\\psoc creator\\import\\gnu\\arm\\4.9.3\\arm-n
 1083              		.file 4 ".\\emFile_V322c\\Code\\Include\\PSoC5/FS_Types.h"
 1084              		.file 5 ".\\emFile_V322c\\Code\\Include\\PSoC5/FS.h"
 1085              		.file 6 "data.h"
 1086              		.file 7 "time_manager.h"
 1087              		.file 8 "Generated_Source\\PSoC5/core_cm3.h"