ARM GAS  D:\Windows\AppData\Local\Temp\ccyQUFxh.s 			page 1


   1              		.syntax unified
   2              		.cpu cortex-m3
   3              		.fpu softvfp
   4              		.eabi_attribute 20, 1
   5              		.eabi_attribute 21, 1
   6              		.eabi_attribute 23, 3
   7              		.eabi_attribute 24, 1
   8              		.eabi_attribute 25, 1
   9              		.eabi_attribute 26, 1
  10              		.eabi_attribute 30, 6
  11              		.eabi_attribute 34, 1
  12              		.eabi_attribute 18, 4
  13              		.thumb
  14              		.file	"time_manager.c"
  15              		.text
  16              	.Ltext0:
  17              		.cfi_sections	.debug_frame
  18              		.comm	current_time,16,4
  19              		.global	refresh_status
  20              		.bss
  21              		.type	refresh_status, %object
  22              		.size	refresh_status, 1
  23              	refresh_status:
  24 0000 00       		.space	1
  25              		.section	.text.time_refresh_vector,"ax",%progbits
  26              		.align	2
  27              		.global	time_refresh_vector
  28              		.thumb
  29              		.thumb_func
  30              		.type	time_refresh_vector, %function
  31              	time_refresh_vector:
  32              	.LFB56:
  33              		.file 1 "time_manager.c"
   1:time_manager.c **** /* ========================================
   2:time_manager.c ****  *
   3:time_manager.c ****  * Copyright YOUR COMPANY, THE YEAR
   4:time_manager.c ****  * All Rights Reserved
   5:time_manager.c ****  * UNPUBLISHED, LICENSED SOFTWARE.
   6:time_manager.c ****  *
   7:time_manager.c ****  * CONFIDENTIAL AND PROPRIETARY INFORMATION
   8:time_manager.c ****  * WHICH IS THE PROPERTY OF your company.
   9:time_manager.c ****  *
  10:time_manager.c ****  * ========================================
  11:time_manager.c **** */
  12:time_manager.c **** #include "time_manager.h"
  13:time_manager.c **** 
  14:time_manager.c **** volatile Time current_time;
  15:time_manager.c **** volatile uint8_t refresh_status = 0;
  16:time_manager.c **** 
  17:time_manager.c **** 
  18:time_manager.c **** /* CY_ISR(time_refresh_vector)
  19:time_manager.c **** 	Runs every 10 seconds and retreives the current time from the RTC and the
  20:time_manager.c **** 	millisecond counter from millis_timer.
  21:time_manager.c **** 	Sets the refresh_status flag, which will trigger time_announce() to inject a
  22:time_manager.c **** 	message containing the current time to the data_queue.  */
  23:time_manager.c **** CY_ISR(time_refresh_vector) {
  34              		.loc 1 23 0
ARM GAS  D:\Windows\AppData\Local\Temp\ccyQUFxh.s 			page 2


  35              		.cfi_startproc
  36              		@ args = 0, pretend = 0, frame = 16
  37              		@ frame_needed = 1, uses_anonymous_args = 0
  38 0000 90B5     		push	{r4, r7, lr}
  39              		.cfi_def_cfa_offset 12
  40              		.cfi_offset 4, -12
  41              		.cfi_offset 7, -8
  42              		.cfi_offset 14, -4
  43 0002 85B0     		sub	sp, sp, #20
  44              		.cfi_def_cfa_offset 32
  45 0004 00AF     		add	r7, sp, #0
  46              		.cfi_def_cfa_register 7
  24:time_manager.c **** 	current_time = time_retreive(); // get time from rtc
  47              		.loc 1 24 0
  48 0006 074C     		ldr	r4, .L2
  49 0008 3B46     		mov	r3, r7
  50 000a 1846     		mov	r0, r3
  51 000c FFF7FEFF 		bl	time_retreive
  52 0010 3B46     		mov	r3, r7
  53 0012 0FCB     		ldmia	r3, {r0, r1, r2, r3}
  54 0014 84E80F00 		stmia	r4, {r0, r1, r2, r3}
  25:time_manager.c **** 	refresh_status = 1;
  55              		.loc 1 25 0
  56 0018 034B     		ldr	r3, .L2+4
  57 001a 0122     		movs	r2, #1
  58 001c 1A70     		strb	r2, [r3]
  26:time_manager.c **** } // CY_ISR(time_refresh_vector)
  59              		.loc 1 26 0
  60 001e 1437     		adds	r7, r7, #20
  61              		.cfi_def_cfa_offset 12
  62 0020 BD46     		mov	sp, r7
  63              		.cfi_def_cfa_register 13
  64              		@ sp needed
  65 0022 90BD     		pop	{r4, r7, pc}
  66              	.L3:
  67              		.align	2
  68              	.L2:
  69 0024 00000000 		.word	current_time
  70 0028 00000000 		.word	refresh_status
  71              		.cfi_endproc
  72              	.LFE56:
  73              		.size	time_refresh_vector, .-time_refresh_vector
  74              		.section	.text.time_init,"ax",%progbits
  75              		.align	2
  76              		.global	time_init
  77              		.thumb
  78              		.thumb_func
  79              		.type	time_init, %function
  80              	time_init:
  81              	.LFB57:
  27:time_manager.c **** 
  28:time_manager.c **** 
  29:time_manager.c **** /* time_init()
  30:time_manager.c **** 	Takes and Returns nothing.
  31:time_manager.c **** 	Initializes i2c with RTC and configures the RTC. Starts the timers and
  32:time_manager.c **** 	time_refresh_vector interrupt.
  33:time_manager.c **** 	RTC PART: MAXIM DS3231  */
ARM GAS  D:\Windows\AppData\Local\Temp\ccyQUFxh.s 			page 3


  34:time_manager.c **** void time_init(void) {
  82              		.loc 1 34 0
  83              		.cfi_startproc
  84              		@ args = 0, pretend = 0, frame = 0
  85              		@ frame_needed = 1, uses_anonymous_args = 0
  86 0000 80B5     		push	{r7, lr}
  87              		.cfi_def_cfa_offset 8
  88              		.cfi_offset 7, -8
  89              		.cfi_offset 14, -4
  90 0002 00AF     		add	r7, sp, #0
  91              		.cfi_def_cfa_register 7
  35:time_manager.c **** 	rtc_i2c_Start(); // start i2c to RTC
  92              		.loc 1 35 0
  93 0004 FFF7FEFF 		bl	rtc_i2c_Start
  36:time_manager.c **** 	time_refresh_isr_StartEx(time_refresh_vector); // enable 1 second isr
  94              		.loc 1 36 0
  95 0008 0348     		ldr	r0, .L5
  96 000a FFF7FEFF 		bl	time_refresh_isr_StartEx
  37:time_manager.c **** 
  38:time_manager.c **** 	// Start timers
  39:time_manager.c **** 	millis_timer_Start();
  97              		.loc 1 39 0
  98 000e FFF7FEFF 		bl	millis_timer_Start
  40:time_manager.c **** 	time_refresh_timer_Start();
  99              		.loc 1 40 0
 100 0012 FFF7FEFF 		bl	time_refresh_timer_Start
  41:time_manager.c **** } // time_init()
 101              		.loc 1 41 0
 102 0016 80BD     		pop	{r7, pc}
 103              	.L6:
 104              		.align	2
 105              	.L5:
 106 0018 00000000 		.word	time_refresh_vector
 107              		.cfi_endproc
 108              	.LFE57:
 109              		.size	time_init, .-time_init
 110              		.section	.text.time_announce,"ax",%progbits
 111              		.align	2
 112              		.global	time_announce
 113              		.thumb
 114              		.thumb_func
 115              		.type	time_announce, %function
 116              	time_announce:
 117              	.LFB58:
  42:time_manager.c **** 
  43:time_manager.c **** 
  44:time_manager.c **** 
  45:time_manager.c **** /* time_announce()
  46:time_manager.c **** 	Takes time and puts into a DataPacket queue.
  47:time_manager.c **** 	Returns nothing.
  48:time_manager.c ****     The actual time and millisecond counter is set by the time_refresh_vector interrupt.
  49:time_manager.c **** */
  50:time_manager.c **** void time_announce() {
 118              		.loc 1 50 0
 119              		.cfi_startproc
 120              		@ args = 0, pretend = 0, frame = 0
 121              		@ frame_needed = 1, uses_anonymous_args = 0
ARM GAS  D:\Windows\AppData\Local\Temp\ccyQUFxh.s 			page 4


 122              		@ link register save eliminated.
 123 0000 80B4     		push	{r7}
 124              		.cfi_def_cfa_offset 4
 125              		.cfi_offset 7, -4
 126 0002 00AF     		add	r7, sp, #0
 127              		.cfi_def_cfa_register 7
  51:time_manager.c ****     if(refresh_status == 1) {
 128              		.loc 1 51 0
 129 0004 054B     		ldr	r3, .L9
 130 0006 1B78     		ldrb	r3, [r3]
 131 0008 DBB2     		uxtb	r3, r3
 132 000a 012B     		cmp	r3, #1
 133 000c 02D1     		bne	.L7
  52:time_manager.c **** 		refresh_status = 0;
 134              		.loc 1 52 0
 135 000e 034B     		ldr	r3, .L9
 136 0010 0022     		movs	r2, #0
 137 0012 1A70     		strb	r2, [r3]
 138              	.L7:
  53:time_manager.c **** 	} //if
  54:time_manager.c **** } // time_announce()
 139              		.loc 1 54 0
 140 0014 BD46     		mov	sp, r7
 141              		.cfi_def_cfa_register 13
 142              		@ sp needed
 143 0016 5DF8047B 		ldr	r7, [sp], #4
 144              		.cfi_restore 7
 145              		.cfi_def_cfa_offset 0
 146 001a 7047     		bx	lr
 147              	.L10:
 148              		.align	2
 149              	.L9:
 150 001c 00000000 		.word	refresh_status
 151              		.cfi_endproc
 152              	.LFE58:
 153              		.size	time_announce, .-time_announce
 154              		.section	.text.time_get,"ax",%progbits
 155              		.align	2
 156              		.global	time_get
 157              		.thumb
 158              		.thumb_func
 159              		.type	time_get, %function
 160              	time_get:
 161              	.LFB59:
  55:time_manager.c **** 
  56:time_manager.c **** 
  57:time_manager.c **** 
  58:time_manager.c **** /* time_get()
  59:time_manager.c **** 	Takes nothing. Returns the current time with millicounter. */
  60:time_manager.c **** Time time_get(void) {
 162              		.loc 1 60 0
 163              		.cfi_startproc
 164              		@ args = 0, pretend = 0, frame = 24
 165              		@ frame_needed = 1, uses_anonymous_args = 0
 166 0000 90B5     		push	{r4, r7, lr}
 167              		.cfi_def_cfa_offset 12
 168              		.cfi_offset 4, -12
ARM GAS  D:\Windows\AppData\Local\Temp\ccyQUFxh.s 			page 5


 169              		.cfi_offset 7, -8
 170              		.cfi_offset 14, -4
 171 0002 87B0     		sub	sp, sp, #28
 172              		.cfi_def_cfa_offset 40
 173 0004 00AF     		add	r7, sp, #0
 174              		.cfi_def_cfa_register 7
 175 0006 7861     		str	r0, [r7, #20]
  61:time_manager.c **** 	current_time = time_retreive();
 176              		.loc 1 61 0
 177 0008 094C     		ldr	r4, .L13
 178 000a 3B46     		mov	r3, r7
 179 000c 1846     		mov	r0, r3
 180 000e FFF7FEFF 		bl	time_retreive
 181 0012 3B46     		mov	r3, r7
 182 0014 0FCB     		ldmia	r3, {r0, r1, r2, r3}
 183 0016 84E80F00 		stmia	r4, {r0, r1, r2, r3}
  62:time_manager.c **** 	return current_time;
 184              		.loc 1 62 0
 185 001a 7B69     		ldr	r3, [r7, #20]
 186 001c 044A     		ldr	r2, .L13
 187 001e 1C46     		mov	r4, r3
 188 0020 1346     		mov	r3, r2
 189 0022 0FCB     		ldmia	r3, {r0, r1, r2, r3}
 190 0024 84E80F00 		stmia	r4, {r0, r1, r2, r3}
  63:time_manager.c **** } // time_get()
 191              		.loc 1 63 0
 192 0028 7869     		ldr	r0, [r7, #20]
 193 002a 1C37     		adds	r7, r7, #28
 194              		.cfi_def_cfa_offset 12
 195 002c BD46     		mov	sp, r7
 196              		.cfi_def_cfa_register 13
 197              		@ sp needed
 198 002e 90BD     		pop	{r4, r7, pc}
 199              	.L14:
 200              		.align	2
 201              	.L13:
 202 0030 00000000 		.word	current_time
 203              		.cfi_endproc
 204              	.LFE59:
 205              		.size	time_get, .-time_get
 206              		.section	.text.time_set,"ax",%progbits
 207              		.align	2
 208              		.global	time_set
 209              		.thumb
 210              		.thumb_func
 211              		.type	time_set, %function
 212              	time_set:
 213              	.LFB60:
  64:time_manager.c **** 
  65:time_manager.c **** 
  66:time_manager.c **** void time_set(Time now) {
 214              		.loc 1 66 0
 215              		.cfi_startproc
 216              		@ args = 0, pretend = 0, frame = 24
 217              		@ frame_needed = 1, uses_anonymous_args = 0
 218 0000 90B5     		push	{r4, r7, lr}
 219              		.cfi_def_cfa_offset 12
ARM GAS  D:\Windows\AppData\Local\Temp\ccyQUFxh.s 			page 6


 220              		.cfi_offset 4, -12
 221              		.cfi_offset 7, -8
 222              		.cfi_offset 14, -4
 223 0002 87B0     		sub	sp, sp, #28
 224              		.cfi_def_cfa_offset 40
 225 0004 00AF     		add	r7, sp, #0
 226              		.cfi_def_cfa_register 7
 227 0006 3C46     		mov	r4, r7
 228 0008 84E80F00 		stmia	r4, {r0, r1, r2, r3}
  67:time_manager.c **** 	// configure RTC
  68:time_manager.c **** 	rtc_i2c_MasterSendStart(RTC_ADDR, 0);   // 0, send write command
 229              		.loc 1 68 0
 230 000c 6820     		movs	r0, #104
 231 000e 0021     		movs	r1, #0
 232 0010 FFF7FEFF 		bl	rtc_i2c_MasterSendStart
  69:time_manager.c **** 	rtc_i2c_MasterWriteByte(RTC_CONFIG);
 233              		.loc 1 69 0
 234 0014 0E20     		movs	r0, #14
 235 0016 FFF7FEFF 		bl	rtc_i2c_MasterWriteByte
  70:time_manager.c **** 	rtc_i2c_MasterWriteByte(0x40); // 1Hz clock
 236              		.loc 1 70 0
 237 001a 4020     		movs	r0, #64
 238 001c FFF7FEFF 		bl	rtc_i2c_MasterWriteByte
  71:time_manager.c **** 	rtc_i2c_MasterSendStop();
 239              		.loc 1 71 0
 240 0020 FFF7FEFF 		bl	rtc_i2c_MasterSendStop
  72:time_manager.c **** 	
  73:time_manager.c **** 	// Set 24 hour
  74:time_manager.c **** 	uint8_t byte;
  75:time_manager.c **** 
  76:time_manager.c **** 	rtc_i2c_MasterSendStart(RTC_ADDR, 0);
 241              		.loc 1 76 0
 242 0024 6820     		movs	r0, #104
 243 0026 0021     		movs	r1, #0
 244 0028 FFF7FEFF 		bl	rtc_i2c_MasterSendStart
  77:time_manager.c **** 	rtc_i2c_MasterWriteByte(0x00); // move to top of register file
 245              		.loc 1 77 0
 246 002c 0020     		movs	r0, #0
 247 002e FFF7FEFF 		bl	rtc_i2c_MasterWriteByte
  78:time_manager.c **** 
  79:time_manager.c **** 	byte = now.second % 10; // seconds
 248              		.loc 1 79 0
 249 0032 3A79     		ldrb	r2, [r7, #4]	@ zero_extendqisi2
 250 0034 594B     		ldr	r3, .L16
 251 0036 A3FB0213 		umull	r1, r3, r3, r2
 252 003a D908     		lsrs	r1, r3, #3
 253 003c 0B46     		mov	r3, r1
 254 003e 9B00     		lsls	r3, r3, #2
 255 0040 0B44     		add	r3, r3, r1
 256 0042 5B00     		lsls	r3, r3, #1
 257 0044 D31A     		subs	r3, r2, r3
 258 0046 FB75     		strb	r3, [r7, #23]
  80:time_manager.c **** 	byte |= (now.second / 10) << 4; // 10 seconds
 259              		.loc 1 80 0
 260 0048 3B79     		ldrb	r3, [r7, #4]	@ zero_extendqisi2
 261 004a 544A     		ldr	r2, .L16
 262 004c A2FB0323 		umull	r2, r3, r2, r3
ARM GAS  D:\Windows\AppData\Local\Temp\ccyQUFxh.s 			page 7


 263 0050 DB08     		lsrs	r3, r3, #3
 264 0052 DBB2     		uxtb	r3, r3
 265 0054 1B01     		lsls	r3, r3, #4
 266 0056 DAB2     		uxtb	r2, r3
 267 0058 FB7D     		ldrb	r3, [r7, #23]	@ zero_extendqisi2
 268 005a 1343     		orrs	r3, r3, r2
 269 005c DBB2     		uxtb	r3, r3
 270 005e FB75     		strb	r3, [r7, #23]
  81:time_manager.c **** 	rtc_i2c_MasterWriteByte(byte);
 271              		.loc 1 81 0
 272 0060 FB7D     		ldrb	r3, [r7, #23]	@ zero_extendqisi2
 273 0062 1846     		mov	r0, r3
 274 0064 FFF7FEFF 		bl	rtc_i2c_MasterWriteByte
  82:time_manager.c **** 
  83:time_manager.c **** 	byte = now.minute % 10; // minute
 275              		.loc 1 83 0
 276 0068 FA78     		ldrb	r2, [r7, #3]	@ zero_extendqisi2
 277 006a 4C4B     		ldr	r3, .L16
 278 006c A3FB0213 		umull	r1, r3, r3, r2
 279 0070 D908     		lsrs	r1, r3, #3
 280 0072 0B46     		mov	r3, r1
 281 0074 9B00     		lsls	r3, r3, #2
 282 0076 0B44     		add	r3, r3, r1
 283 0078 5B00     		lsls	r3, r3, #1
 284 007a D31A     		subs	r3, r2, r3
 285 007c FB75     		strb	r3, [r7, #23]
  84:time_manager.c **** 	byte |= (now.minute/ 10) << 4; // 10 minute
 286              		.loc 1 84 0
 287 007e FB78     		ldrb	r3, [r7, #3]	@ zero_extendqisi2
 288 0080 464A     		ldr	r2, .L16
 289 0082 A2FB0323 		umull	r2, r3, r2, r3
 290 0086 DB08     		lsrs	r3, r3, #3
 291 0088 DBB2     		uxtb	r3, r3
 292 008a 1B01     		lsls	r3, r3, #4
 293 008c DAB2     		uxtb	r2, r3
 294 008e FB7D     		ldrb	r3, [r7, #23]	@ zero_extendqisi2
 295 0090 1343     		orrs	r3, r3, r2
 296 0092 DBB2     		uxtb	r3, r3
 297 0094 FB75     		strb	r3, [r7, #23]
  85:time_manager.c **** 	rtc_i2c_MasterWriteByte(byte);
 298              		.loc 1 85 0
 299 0096 FB7D     		ldrb	r3, [r7, #23]	@ zero_extendqisi2
 300 0098 1846     		mov	r0, r3
 301 009a FFF7FEFF 		bl	rtc_i2c_MasterWriteByte
  86:time_manager.c **** 
  87:time_manager.c **** 	byte = now.hour % 10; // hour
 302              		.loc 1 87 0
 303 009e BA78     		ldrb	r2, [r7, #2]	@ zero_extendqisi2
 304 00a0 3E4B     		ldr	r3, .L16
 305 00a2 A3FB0213 		umull	r1, r3, r3, r2
 306 00a6 D908     		lsrs	r1, r3, #3
 307 00a8 0B46     		mov	r3, r1
 308 00aa 9B00     		lsls	r3, r3, #2
 309 00ac 0B44     		add	r3, r3, r1
 310 00ae 5B00     		lsls	r3, r3, #1
 311 00b0 D31A     		subs	r3, r2, r3
 312 00b2 FB75     		strb	r3, [r7, #23]
ARM GAS  D:\Windows\AppData\Local\Temp\ccyQUFxh.s 			page 8


  88:time_manager.c **** 	byte |= (now.hour / 10) << 4;       // 10 hour      0-23, bit4=10hr, bit5=20hr, bit6=set 24hr time
 313              		.loc 1 88 0
 314 00b4 BB78     		ldrb	r3, [r7, #2]	@ zero_extendqisi2
 315 00b6 394A     		ldr	r2, .L16
 316 00b8 A2FB0323 		umull	r2, r3, r2, r3
 317 00bc DB08     		lsrs	r3, r3, #3
 318 00be DBB2     		uxtb	r3, r3
 319 00c0 1B01     		lsls	r3, r3, #4
 320 00c2 DAB2     		uxtb	r2, r3
 321 00c4 FB7D     		ldrb	r3, [r7, #23]	@ zero_extendqisi2
 322 00c6 1343     		orrs	r3, r3, r2
 323 00c8 DBB2     		uxtb	r3, r3
 324 00ca FB75     		strb	r3, [r7, #23]
  89:time_manager.c **** 	rtc_i2c_MasterWriteByte(0x00 | byte);		//set bit6 low = 24hr time
 325              		.loc 1 89 0
 326 00cc FB7D     		ldrb	r3, [r7, #23]	@ zero_extendqisi2
 327 00ce 1846     		mov	r0, r3
 328 00d0 FFF7FEFF 		bl	rtc_i2c_MasterWriteByte
  90:time_manager.c **** 	rtc_i2c_MasterWriteByte(byte);
 329              		.loc 1 90 0
 330 00d4 FB7D     		ldrb	r3, [r7, #23]	@ zero_extendqisi2
 331 00d6 1846     		mov	r0, r3
 332 00d8 FFF7FEFF 		bl	rtc_i2c_MasterWriteByte
  91:time_manager.c **** 
  92:time_manager.c **** 	rtc_i2c_MasterSendStop(); // End Receiving
 333              		.loc 1 92 0
 334 00dc FFF7FEFF 		bl	rtc_i2c_MasterSendStop
  93:time_manager.c **** 
  94:time_manager.c **** 	// skip day
  95:time_manager.c **** 
  96:time_manager.c **** 	rtc_i2c_MasterSendStart(RTC_ADDR, 0);
 335              		.loc 1 96 0
 336 00e0 6820     		movs	r0, #104
 337 00e2 0021     		movs	r1, #0
 338 00e4 FFF7FEFF 		bl	rtc_i2c_MasterSendStart
  97:time_manager.c **** 	rtc_i2c_MasterWriteByte(RTC_DATE); // move to Date
 339              		.loc 1 97 0
 340 00e8 0420     		movs	r0, #4
 341 00ea FFF7FEFF 		bl	rtc_i2c_MasterWriteByte
  98:time_manager.c **** 
  99:time_manager.c **** 	byte = now.day % 10; // day
 342              		.loc 1 99 0
 343 00ee 7A78     		ldrb	r2, [r7, #1]	@ zero_extendqisi2
 344 00f0 2A4B     		ldr	r3, .L16
 345 00f2 A3FB0213 		umull	r1, r3, r3, r2
 346 00f6 D908     		lsrs	r1, r3, #3
 347 00f8 0B46     		mov	r3, r1
 348 00fa 9B00     		lsls	r3, r3, #2
 349 00fc 0B44     		add	r3, r3, r1
 350 00fe 5B00     		lsls	r3, r3, #1
 351 0100 D31A     		subs	r3, r2, r3
 352 0102 FB75     		strb	r3, [r7, #23]
 100:time_manager.c **** 	byte |= (now.day / 10) << 4; // 10 day
 353              		.loc 1 100 0
 354 0104 7B78     		ldrb	r3, [r7, #1]	@ zero_extendqisi2
 355 0106 254A     		ldr	r2, .L16
 356 0108 A2FB0323 		umull	r2, r3, r2, r3
ARM GAS  D:\Windows\AppData\Local\Temp\ccyQUFxh.s 			page 9


 357 010c DB08     		lsrs	r3, r3, #3
 358 010e DBB2     		uxtb	r3, r3
 359 0110 1B01     		lsls	r3, r3, #4
 360 0112 DAB2     		uxtb	r2, r3
 361 0114 FB7D     		ldrb	r3, [r7, #23]	@ zero_extendqisi2
 362 0116 1343     		orrs	r3, r3, r2
 363 0118 DBB2     		uxtb	r3, r3
 364 011a FB75     		strb	r3, [r7, #23]
 101:time_manager.c **** 	rtc_i2c_MasterWriteByte(byte);
 365              		.loc 1 101 0
 366 011c FB7D     		ldrb	r3, [r7, #23]	@ zero_extendqisi2
 367 011e 1846     		mov	r0, r3
 368 0120 FFF7FEFF 		bl	rtc_i2c_MasterWriteByte
 102:time_manager.c **** 
 103:time_manager.c **** 	byte = now.month % 10; // month
 369              		.loc 1 103 0
 370 0124 3A78     		ldrb	r2, [r7]	@ zero_extendqisi2
 371 0126 1D4B     		ldr	r3, .L16
 372 0128 A3FB0213 		umull	r1, r3, r3, r2
 373 012c D908     		lsrs	r1, r3, #3
 374 012e 0B46     		mov	r3, r1
 375 0130 9B00     		lsls	r3, r3, #2
 376 0132 0B44     		add	r3, r3, r1
 377 0134 5B00     		lsls	r3, r3, #1
 378 0136 D31A     		subs	r3, r2, r3
 379 0138 FB75     		strb	r3, [r7, #23]
 104:time_manager.c **** 	byte |= (now.month / 10) << 4; // 10 month
 380              		.loc 1 104 0
 381 013a 3B78     		ldrb	r3, [r7]	@ zero_extendqisi2
 382 013c 174A     		ldr	r2, .L16
 383 013e A2FB0323 		umull	r2, r3, r2, r3
 384 0142 DB08     		lsrs	r3, r3, #3
 385 0144 DBB2     		uxtb	r3, r3
 386 0146 1B01     		lsls	r3, r3, #4
 387 0148 DAB2     		uxtb	r2, r3
 388 014a FB7D     		ldrb	r3, [r7, #23]	@ zero_extendqisi2
 389 014c 1343     		orrs	r3, r3, r2
 390 014e DBB2     		uxtb	r3, r3
 391 0150 FB75     		strb	r3, [r7, #23]
 105:time_manager.c **** 	rtc_i2c_MasterWriteByte(byte);
 392              		.loc 1 105 0
 393 0152 FB7D     		ldrb	r3, [r7, #23]	@ zero_extendqisi2
 394 0154 1846     		mov	r0, r3
 395 0156 FFF7FEFF 		bl	rtc_i2c_MasterWriteByte
 106:time_manager.c **** 
 107:time_manager.c **** 	byte = now.year % 10; // year
 396              		.loc 1 107 0
 397 015a BA89     		ldrh	r2, [r7, #12]
 398 015c 0F4B     		ldr	r3, .L16
 399 015e A3FB0213 		umull	r1, r3, r3, r2
 400 0162 D908     		lsrs	r1, r3, #3
 401 0164 0B46     		mov	r3, r1
 402 0166 9B00     		lsls	r3, r3, #2
 403 0168 0B44     		add	r3, r3, r1
 404 016a 5B00     		lsls	r3, r3, #1
 405 016c D31A     		subs	r3, r2, r3
 406 016e 9BB2     		uxth	r3, r3
ARM GAS  D:\Windows\AppData\Local\Temp\ccyQUFxh.s 			page 10


 407 0170 FB75     		strb	r3, [r7, #23]
 108:time_manager.c **** 	byte |= (now.year / 10) << 4; // 10 year
 408              		.loc 1 108 0
 409 0172 BB89     		ldrh	r3, [r7, #12]
 410 0174 094A     		ldr	r2, .L16
 411 0176 A2FB0323 		umull	r2, r3, r2, r3
 412 017a DB08     		lsrs	r3, r3, #3
 413 017c 9BB2     		uxth	r3, r3
 414 017e 1B01     		lsls	r3, r3, #4
 415 0180 DAB2     		uxtb	r2, r3
 416 0182 FB7D     		ldrb	r3, [r7, #23]	@ zero_extendqisi2
 417 0184 1343     		orrs	r3, r3, r2
 418 0186 DBB2     		uxtb	r3, r3
 419 0188 FB75     		strb	r3, [r7, #23]
 109:time_manager.c **** 	rtc_i2c_MasterWriteByte(byte);
 420              		.loc 1 109 0
 421 018a FB7D     		ldrb	r3, [r7, #23]	@ zero_extendqisi2
 422 018c 1846     		mov	r0, r3
 423 018e FFF7FEFF 		bl	rtc_i2c_MasterWriteByte
 110:time_manager.c **** 
 111:time_manager.c **** 	rtc_i2c_MasterSendStop(); // End Receiving
 424              		.loc 1 111 0
 425 0192 FFF7FEFF 		bl	rtc_i2c_MasterSendStop
 112:time_manager.c **** } // time_set()
 426              		.loc 1 112 0
 427 0196 1C37     		adds	r7, r7, #28
 428              		.cfi_def_cfa_offset 12
 429 0198 BD46     		mov	sp, r7
 430              		.cfi_def_cfa_register 13
 431              		@ sp needed
 432 019a 90BD     		pop	{r4, r7, pc}
 433              	.L17:
 434              		.align	2
 435              	.L16:
 436 019c CDCCCCCC 		.word	-858993459
 437              		.cfi_endproc
 438              	.LFE60:
 439              		.size	time_set, .-time_set
 440              		.section	.text.time_retreive,"ax",%progbits
 441              		.align	2
 442              		.global	time_retreive
 443              		.thumb
 444              		.thumb_func
 445              		.type	time_retreive, %function
 446              	time_retreive:
 447              	.LFB61:
 113:time_manager.c **** 
 114:time_manager.c **** 
 115:time_manager.c **** 
 116:time_manager.c **** /* time_retreive()
 117:time_manager.c **** 	Takes nothing. Returns the current time.
 118:time_manager.c **** 
 119:time_manager.c **** 	Communicates with an external RTC with i2c to obtain the current time.
 120:time_manager.c **** 	Sets the register pointer in the RTC to 0 and then reads the data sequencially
 121:time_manager.c **** 	from the register. The RTC auto-increments after reading each byte. Converts
 122:time_manager.c **** 	the binary encoded decimal to simple binary representation. Reads the
 123:time_manager.c **** 	millisecond counter into the current time.
ARM GAS  D:\Windows\AppData\Local\Temp\ccyQUFxh.s 			page 11


 124:time_manager.c **** 
 125:time_manager.c **** 	RTC PART: MAXIM DS3231
 126:time_manager.c **** */
 127:time_manager.c **** Time time_retreive(void) {
 448              		.loc 1 127 0
 449              		.cfi_startproc
 450              		@ args = 0, pretend = 0, frame = 32
 451              		@ frame_needed = 1, uses_anonymous_args = 0
 452 0000 90B5     		push	{r4, r7, lr}
 453              		.cfi_def_cfa_offset 12
 454              		.cfi_offset 4, -12
 455              		.cfi_offset 7, -8
 456              		.cfi_offset 14, -4
 457 0002 89B0     		sub	sp, sp, #36
 458              		.cfi_def_cfa_offset 48
 459 0004 00AF     		add	r7, sp, #0
 460              		.cfi_def_cfa_register 7
 461 0006 7860     		str	r0, [r7, #4]
 128:time_manager.c **** 	Time tmp_time;
 129:time_manager.c **** 	uint8_t byte;
 130:time_manager.c **** 
 131:time_manager.c **** 	// Set register pointer to 0
 132:time_manager.c **** 	rtc_i2c_MasterSendStart(RTC_ADDR, 0);
 462              		.loc 1 132 0
 463 0008 6820     		movs	r0, #104
 464 000a 0021     		movs	r1, #0
 465 000c FFF7FEFF 		bl	rtc_i2c_MasterSendStart
 133:time_manager.c **** 	rtc_i2c_MasterWriteByte(0x00);
 466              		.loc 1 133 0
 467 0010 0020     		movs	r0, #0
 468 0012 FFF7FEFF 		bl	rtc_i2c_MasterWriteByte
 134:time_manager.c **** 	rtc_i2c_MasterSendStop();
 469              		.loc 1 134 0
 470 0016 FFF7FEFF 		bl	rtc_i2c_MasterSendStop
 135:time_manager.c **** 	
 136:time_manager.c **** 	// Read data from registers
 137:time_manager.c **** 	rtc_i2c_MasterSendStart(RTC_ADDR, 1); // Begin receiving
 471              		.loc 1 137 0
 472 001a 6820     		movs	r0, #104
 473 001c 0121     		movs	r1, #1
 474 001e FFF7FEFF 		bl	rtc_i2c_MasterSendStart
 138:time_manager.c **** 
 139:time_manager.c **** 	byte = rtc_i2c_MasterReadByte(1);
 475              		.loc 1 139 0
 476 0022 0120     		movs	r0, #1
 477 0024 FFF7FEFF 		bl	rtc_i2c_MasterReadByte
 478 0028 0346     		mov	r3, r0
 479 002a FB77     		strb	r3, [r7, #31]
 140:time_manager.c **** 	tmp_time.second = byte & 0x0F; // seconds
 480              		.loc 1 140 0
 481 002c FB7F     		ldrb	r3, [r7, #31]
 482 002e 03F00F03 		and	r3, r3, #15
 483 0032 DBB2     		uxtb	r3, r3
 484 0034 3B74     		strb	r3, [r7, #16]
 141:time_manager.c **** 	tmp_time.second += 10 * (byte >> 4); // 10 seconds
 485              		.loc 1 141 0
 486 0036 3A7C     		ldrb	r2, [r7, #16]	@ zero_extendqisi2
ARM GAS  D:\Windows\AppData\Local\Temp\ccyQUFxh.s 			page 12


 487 0038 FB7F     		ldrb	r3, [r7, #31]	@ zero_extendqisi2
 488 003a 1B09     		lsrs	r3, r3, #4
 489 003c DBB2     		uxtb	r3, r3
 490 003e 1946     		mov	r1, r3
 491 0040 8900     		lsls	r1, r1, #2
 492 0042 0B44     		add	r3, r3, r1
 493 0044 5B00     		lsls	r3, r3, #1
 494 0046 DBB2     		uxtb	r3, r3
 495 0048 1344     		add	r3, r3, r2
 496 004a DBB2     		uxtb	r3, r3
 497 004c 3B74     		strb	r3, [r7, #16]
 142:time_manager.c **** 
 143:time_manager.c **** 	byte = rtc_i2c_MasterReadByte(1);
 498              		.loc 1 143 0
 499 004e 0120     		movs	r0, #1
 500 0050 FFF7FEFF 		bl	rtc_i2c_MasterReadByte
 501 0054 0346     		mov	r3, r0
 502 0056 FB77     		strb	r3, [r7, #31]
 144:time_manager.c **** 	tmp_time.minute = byte & 0x0F; // minutes
 503              		.loc 1 144 0
 504 0058 FB7F     		ldrb	r3, [r7, #31]
 505 005a 03F00F03 		and	r3, r3, #15
 506 005e DBB2     		uxtb	r3, r3
 507 0060 FB73     		strb	r3, [r7, #15]
 145:time_manager.c **** 	tmp_time.minute += 10 * (byte >> 4); // 10 seconds
 508              		.loc 1 145 0
 509 0062 FA7B     		ldrb	r2, [r7, #15]	@ zero_extendqisi2
 510 0064 FB7F     		ldrb	r3, [r7, #31]	@ zero_extendqisi2
 511 0066 1B09     		lsrs	r3, r3, #4
 512 0068 DBB2     		uxtb	r3, r3
 513 006a 1946     		mov	r1, r3
 514 006c 8900     		lsls	r1, r1, #2
 515 006e 0B44     		add	r3, r3, r1
 516 0070 5B00     		lsls	r3, r3, #1
 517 0072 DBB2     		uxtb	r3, r3
 518 0074 1344     		add	r3, r3, r2
 519 0076 DBB2     		uxtb	r3, r3
 520 0078 FB73     		strb	r3, [r7, #15]
 146:time_manager.c **** 
 147:time_manager.c **** 	byte = rtc_i2c_MasterReadByte(1);
 521              		.loc 1 147 0
 522 007a 0120     		movs	r0, #1
 523 007c FFF7FEFF 		bl	rtc_i2c_MasterReadByte
 524 0080 0346     		mov	r3, r0
 525 0082 FB77     		strb	r3, [r7, #31]
 148:time_manager.c **** 	tmp_time.hour = byte & 0x0F; // hours 
 526              		.loc 1 148 0
 527 0084 FB7F     		ldrb	r3, [r7, #31]
 528 0086 03F00F03 		and	r3, r3, #15
 529 008a DBB2     		uxtb	r3, r3
 530 008c BB73     		strb	r3, [r7, #14]
 149:time_manager.c **** 	tmp_time.hour += 10 * ((byte&0x3F) >> 4); // 10 hours
 531              		.loc 1 149 0
 532 008e BA7B     		ldrb	r2, [r7, #14]	@ zero_extendqisi2
 533 0090 FB7F     		ldrb	r3, [r7, #31]	@ zero_extendqisi2
 534 0092 03F03F03 		and	r3, r3, #63
 535 0096 1B11     		asrs	r3, r3, #4
ARM GAS  D:\Windows\AppData\Local\Temp\ccyQUFxh.s 			page 13


 536 0098 DBB2     		uxtb	r3, r3
 537 009a 1946     		mov	r1, r3
 538 009c 8900     		lsls	r1, r1, #2
 539 009e 0B44     		add	r3, r3, r1
 540 00a0 5B00     		lsls	r3, r3, #1
 541 00a2 DBB2     		uxtb	r3, r3
 542 00a4 1344     		add	r3, r3, r2
 543 00a6 DBB2     		uxtb	r3, r3
 544 00a8 BB73     		strb	r3, [r7, #14]
 150:time_manager.c **** 
 151:time_manager.c **** 	byte = rtc_i2c_MasterReadByte(1); // skip day
 545              		.loc 1 151 0
 546 00aa 0120     		movs	r0, #1
 547 00ac FFF7FEFF 		bl	rtc_i2c_MasterReadByte
 548 00b0 0346     		mov	r3, r0
 549 00b2 FB77     		strb	r3, [r7, #31]
 152:time_manager.c **** 
 153:time_manager.c **** 	byte = rtc_i2c_MasterReadByte(1);
 550              		.loc 1 153 0
 551 00b4 0120     		movs	r0, #1
 552 00b6 FFF7FEFF 		bl	rtc_i2c_MasterReadByte
 553 00ba 0346     		mov	r3, r0
 554 00bc FB77     		strb	r3, [r7, #31]
 154:time_manager.c **** 	tmp_time.day = byte & 0x0F; // date
 555              		.loc 1 154 0
 556 00be FB7F     		ldrb	r3, [r7, #31]
 557 00c0 03F00F03 		and	r3, r3, #15
 558 00c4 DBB2     		uxtb	r3, r3
 559 00c6 7B73     		strb	r3, [r7, #13]
 155:time_manager.c **** 	tmp_time.day += 10 * (byte >> 4); // 10 date
 560              		.loc 1 155 0
 561 00c8 7A7B     		ldrb	r2, [r7, #13]	@ zero_extendqisi2
 562 00ca FB7F     		ldrb	r3, [r7, #31]	@ zero_extendqisi2
 563 00cc 1B09     		lsrs	r3, r3, #4
 564 00ce DBB2     		uxtb	r3, r3
 565 00d0 1946     		mov	r1, r3
 566 00d2 8900     		lsls	r1, r1, #2
 567 00d4 0B44     		add	r3, r3, r1
 568 00d6 5B00     		lsls	r3, r3, #1
 569 00d8 DBB2     		uxtb	r3, r3
 570 00da 1344     		add	r3, r3, r2
 571 00dc DBB2     		uxtb	r3, r3
 572 00de 7B73     		strb	r3, [r7, #13]
 156:time_manager.c **** 
 157:time_manager.c **** 	byte = rtc_i2c_MasterReadByte(1);
 573              		.loc 1 157 0
 574 00e0 0120     		movs	r0, #1
 575 00e2 FFF7FEFF 		bl	rtc_i2c_MasterReadByte
 576 00e6 0346     		mov	r3, r0
 577 00e8 FB77     		strb	r3, [r7, #31]
 158:time_manager.c **** 	tmp_time.month = byte & 0x0F; // Month/Century 
 578              		.loc 1 158 0
 579 00ea FB7F     		ldrb	r3, [r7, #31]
 580 00ec 03F00F03 		and	r3, r3, #15
 581 00f0 DBB2     		uxtb	r3, r3
 582 00f2 3B73     		strb	r3, [r7, #12]
 159:time_manager.c **** 	tmp_time.month += 10 * ((byte & 0x01) >> 4); // 10 Month
ARM GAS  D:\Windows\AppData\Local\Temp\ccyQUFxh.s 			page 14


 583              		.loc 1 159 0
 584 00f4 3B7B     		ldrb	r3, [r7, #12]	@ zero_extendqisi2
 585 00f6 3B73     		strb	r3, [r7, #12]
 160:time_manager.c **** 
 161:time_manager.c **** 	byte = rtc_i2c_MasterReadByte(0);
 586              		.loc 1 161 0
 587 00f8 0020     		movs	r0, #0
 588 00fa FFF7FEFF 		bl	rtc_i2c_MasterReadByte
 589 00fe 0346     		mov	r3, r0
 590 0100 FB77     		strb	r3, [r7, #31]
 162:time_manager.c **** 	tmp_time.year = byte & 0x0F; // Year
 591              		.loc 1 162 0
 592 0102 FB7F     		ldrb	r3, [r7, #31]	@ zero_extendqisi2
 593 0104 9BB2     		uxth	r3, r3
 594 0106 03F00F03 		and	r3, r3, #15
 595 010a 9BB2     		uxth	r3, r3
 596 010c 3B83     		strh	r3, [r7, #24]	@ movhi
 163:time_manager.c **** 	tmp_time.year += 10 * (byte >> 4); // 10 Years
 597              		.loc 1 163 0
 598 010e 3A8B     		ldrh	r2, [r7, #24]
 599 0110 FB7F     		ldrb	r3, [r7, #31]	@ zero_extendqisi2
 600 0112 1B09     		lsrs	r3, r3, #4
 601 0114 DBB2     		uxtb	r3, r3
 602 0116 9BB2     		uxth	r3, r3
 603 0118 1946     		mov	r1, r3	@ movhi
 604 011a 8900     		lsls	r1, r1, #2
 605 011c 0B44     		add	r3, r3, r1
 606 011e 5B00     		lsls	r3, r3, #1
 607 0120 9BB2     		uxth	r3, r3
 608 0122 1344     		add	r3, r3, r2
 609 0124 9BB2     		uxth	r3, r3
 610 0126 3B83     		strh	r3, [r7, #24]	@ movhi
 164:time_manager.c **** 
 165:time_manager.c **** 	rtc_i2c_MasterSendStop(); // End Receiving
 611              		.loc 1 165 0
 612 0128 FFF7FEFF 		bl	rtc_i2c_MasterSendStop
 166:time_manager.c **** 
 167:time_manager.c **** 	tmp_time.millicounter = millis_timer_ReadCounter();
 613              		.loc 1 167 0
 614 012c FFF7FEFF 		bl	millis_timer_ReadCounter
 615 0130 0346     		mov	r3, r0
 616 0132 7B61     		str	r3, [r7, #20]
 168:time_manager.c **** 
 169:time_manager.c **** 	return tmp_time; 
 617              		.loc 1 169 0
 618 0134 7B68     		ldr	r3, [r7, #4]
 619 0136 1C46     		mov	r4, r3
 620 0138 07F10C03 		add	r3, r7, #12
 621 013c 0FCB     		ldmia	r3, {r0, r1, r2, r3}
 622 013e 84E80F00 		stmia	r4, {r0, r1, r2, r3}
 170:time_manager.c **** } // time_retreive()
 623              		.loc 1 170 0
 624 0142 7868     		ldr	r0, [r7, #4]
 625 0144 2437     		adds	r7, r7, #36
 626              		.cfi_def_cfa_offset 12
 627 0146 BD46     		mov	sp, r7
 628              		.cfi_def_cfa_register 13
ARM GAS  D:\Windows\AppData\Local\Temp\ccyQUFxh.s 			page 15


 629              		@ sp needed
 630 0148 90BD     		pop	{r4, r7, pc}
 631              		.cfi_endproc
 632              	.LFE61:
 633              		.size	time_retreive, .-time_retreive
 634 014a 00BF     		.text
 635              	.Letext0:
 636              		.file 2 "d:\\programming\\cypress\\psoc creator\\4.0\\psoc creator\\import\\gnu\\arm\\4.9.3\\arm-n
 637              		.file 3 "d:\\programming\\cypress\\psoc creator\\4.0\\psoc creator\\import\\gnu\\arm\\4.9.3\\arm-n
 638              		.file 4 "time_manager.h"
 639              		.file 5 "Generated_Source\\PSoC5/core_cm3.h"